---
triple:          'arm64-apple-darwin'
binary-path:     '/Users/yvan/Desktop/SELF/QUANTFIN/BaruchCertif/Final_Project/01_Exact_Pricing_Methods/tests/test_02'
relocations:
  - { offset: 0x19, size: 0x8, addend: 0x0, symName: __ZSt21is_constant_evaluatedv, symObjAddr: 0x0, symBinAddr: 0x100000790, symSize: 0x8 }
  - { offset: 0x1A745, size: 0x8, addend: 0x0, symName: __ZN5boost10wrapexceptISt12domain_errorE7deleterD1Ev, symObjAddr: 0x45CC, symBinAddr: 0x100004D5C, symSize: 0x38 }
  - { offset: 0x1A792, size: 0x8, addend: 0x0, symName: __ZN5boost16exception_detail12refcount_ptrINS0_20error_info_containerEEC1ERKS3_, symObjAddr: 0x4598, symBinAddr: 0x100004D28, symSize: 0x34 }
  - { offset: 0x1A7C1, size: 0x8, addend: 0x0, symName: __ZNK5boost10wrapexceptISt12domain_errorE7rethrowEv, symObjAddr: 0x4544, symBinAddr: 0x100004CD4, symSize: 0x54 }
  - { offset: 0x1A7EB, size: 0x8, addend: 0x0, symName: __ZNK5boost10wrapexceptISt12domain_errorE5cloneEv, symObjAddr: 0x445C, symBinAddr: 0x100004BEC, symSize: 0xE8 }
  - { offset: 0x1A857, size: 0x8, addend: 0x0, symName: __ZN5boost10wrapexceptISt12domain_errorEC1ERKS2_, symObjAddr: 0x4398, symBinAddr: 0x100004B28, symSize: 0xC4 }
  - { offset: 0x1A8A8, size: 0x8, addend: 0x0, symName: __ZN5boost9exceptionC2ERKS0_, symObjAddr: 0x430C, symBinAddr: 0x100004A9C, symSize: 0x8C }
  - { offset: 0x1A8FA, size: 0x8, addend: 0x0, symName: __ZN5boost16exception_detail10clone_baseC2ERKS1_, symObjAddr: 0x42E0, symBinAddr: 0x100004A70, symSize: 0x2C }
  - { offset: 0x1A943, size: 0x8, addend: 0x0, symName: __ZN4yvan6engine8BSEngineD0Ev, symObjAddr: 0x42B8, symBinAddr: 0x100004A48, symSize: 0x28 }
  - { offset: 0x1A96D, size: 0x8, addend: 0x0, symName: __ZN4yvan6engine8BSEngineD1Ev, symObjAddr: 0x4288, symBinAddr: 0x100004A18, symSize: 0x30 }
  - { offset: 0x1A9AD, size: 0x8, addend: 0x0, symName: __ZN4yvan6engine7IPricerD2Ev, symObjAddr: 0x4260, symBinAddr: 0x1000049F0, symSize: 0x28 }
  - { offset: 0x1A9CF, size: 0x8, addend: 0x0, symName: __ZSt9__fill_a1IPddEvT_S1_RKT0_, symObjAddr: 0x4200, symBinAddr: 0x100004990, symSize: 0x60 }
  - { offset: 0x1AA60, size: 0x8, addend: 0x0, symName: __ZN5boost10wrapexceptISt12domain_errorE9copy_fromEPKv, symObjAddr: 0x41E8, symBinAddr: 0x100004978, symSize: 0x18 }
  - { offset: 0x1AA93, size: 0x8, addend: 0x0, symName: __ZNSt7__cxx1112basic_stringIcSt11char_traitsIcESaIcEE6appendEPKcm, symObjAddr: 0x41A4, symBinAddr: 0x100004934, symSize: 0x44 }
  - { offset: 0x1AB60, size: 0x8, addend: 0x0, symName: __ZN5boost10wrapexceptISt12domain_errorEC1ERKS1_, symObjAddr: 0x411C, symBinAddr: 0x1000048AC, symSize: 0x88 }
  - { offset: 0x1ABAE, size: 0x8, addend: 0x0, symName: __ZNSt12domain_errorC2ERKS_, symObjAddr: 0x40E0, symBinAddr: 0x100004870, symSize: 0x3C }
  - { offset: 0x1ABFB, size: 0x8, addend: 0x0, symName: __ZN5boost16exception_detail10clone_baseC2Ev, symObjAddr: 0x40B8, symBinAddr: 0x100004848, symSize: 0x28 }
  - { offset: 0x1AC33, size: 0x8, addend: 0x0, symName: __ZNSt7__cxx1112basic_stringIcSt11char_traitsIcESaIcEE6appendERKS4_, symObjAddr: 0x4074, symBinAddr: 0x100004804, symSize: 0x44 }
  - { offset: 0x1ACD2, size: 0x8, addend: 0x0, symName: __ZSt12construct_atIdJEQaant20is_unbounded_array_vIT_ErqXgsnwcvPvLi0E_S0_pispcl7declvalIT0_EEEEEPS0_S3_DpOS2_, symObjAddr: 0x4018, symBinAddr: 0x1000047A8, symSize: 0x5C }
  - { offset: 0x1AD53, size: 0x8, addend: 0x0, symName: __ZNSt15__new_allocatorIcE8allocateEmPKv, symObjAddr: 0x3FB4, symBinAddr: 0x100004744, symSize: 0x64 }
  - { offset: 0x1ADC5, size: 0x8, addend: 0x0, symName: __ZN5boost15throw_exceptionISt12domain_errorEEvRKT_, symObjAddr: 0x3F58, symBinAddr: 0x1000046E8, symSize: 0x5C }
  - { offset: 0x1AE18, size: 0x8, addend: 0x0, symName: __ZN5boost10wrapexceptISt12domain_errorED0Ev, symObjAddr: 0x3F20, symBinAddr: 0x1000046B0, symSize: 0x28 }
  - { offset: 0x1AE42, size: 0x8, addend: 0x0, symName: __ZN5boost10wrapexceptISt12domain_errorED1Ev, symObjAddr: 0x3E9C, symBinAddr: 0x10000462C, symSize: 0x74 }
  - { offset: 0x1AE64, size: 0x8, addend: 0x0, symName: __ZN5boost4math8policies6detail11prec_formatIdEENSt7__cxx1112basic_stringIcSt11char_traitsIcESaIcEEERKT_, symObjAddr: 0x3E08, symBinAddr: 0x100004598, symSize: 0x94 }
  - { offset: 0x1AECF, size: 0x8, addend: 0x0, symName: __ZNSt7__cxx1112basic_stringIcSt11char_traitsIcESaIcEEpLERKS4_, symObjAddr: 0x3DE4, symBinAddr: 0x100004574, symSize: 0x24 }
  - { offset: 0x1AF57, size: 0x8, addend: 0x0, symName: __ZNSt19_UninitDestroyGuardIPdvE7releaseEv, symObjAddr: 0x3DC8, symBinAddr: 0x100004558, symSize: 0x1C }
  - { offset: 0x1AF7D, size: 0x8, addend: 0x0, symName: __ZSt10_ConstructIdJEEvPT_DpOT0_, symObjAddr: 0x3D64, symBinAddr: 0x1000044F4, symSize: 0x64 }
  - { offset: 0x1AFF4, size: 0x8, addend: 0x0, symName: __ZNSt19_UninitDestroyGuardIPdvED1Ev, symObjAddr: 0x3D0C, symBinAddr: 0x10000449C, symSize: 0x58 }
  - { offset: 0x1B050, size: 0x8, addend: 0x0, symName: __ZSt19__relocate_object_aIddSaIdEEvPT_PT0_RT1_, symObjAddr: 0x3C8C, symBinAddr: 0x10000441C, symSize: 0x80 }
  - { offset: 0x1B20C, size: 0x8, addend: 0x0, symName: __ZN5boost4math8policies6detail11raise_errorISt12domain_errordEEvPKcS6_RKT0_, symObjAddr: 0x3AE4, symBinAddr: 0x100004274, symSize: 0x1A8 }
  - { offset: 0x1B3DB, size: 0x8, addend: 0x0, symName: __ZNKSt4lessIPKcEclES1_S1_, symObjAddr: 0x3A90, symBinAddr: 0x100004220, symSize: 0x54 }
  - { offset: 0x1B441, size: 0x8, addend: 0x0, symName: __ZNSt15__new_allocatorIcE10deallocateEPcm, symObjAddr: 0x3A68, symBinAddr: 0x1000041F8, symSize: 0x28 }
  - { offset: 0x1B487, size: 0x8, addend: 0x0, symName: __ZNSt27__uninitialized_default_n_1ILb1EE18__uninit_default_nIPdmEET_S3_T0_, symObjAddr: 0x3974, symBinAddr: 0x100004104, symSize: 0xF4 }
  - { offset: 0x1B5F4, size: 0x8, addend: 0x0, symName: __ZNSt27__uninitialized_default_n_1ILb0EE18__uninit_default_nIPdmEET_S3_T0_, symObjAddr: 0x38F8, symBinAddr: 0x100004088, symSize: 0x7C }
  - { offset: 0x1B6A1, size: 0x8, addend: 0x0, symName: __ZNSt19_UninitDestroyGuardIPdvEC1ERS0_, symObjAddr: 0x38C4, symBinAddr: 0x100004054, symSize: 0x34 }
  - { offset: 0x1B70C, size: 0x8, addend: 0x0, symName: __ZNKSt6vectorIdSaIdEE3endEv, symObjAddr: 0x3894, symBinAddr: 0x100004024, symSize: 0x30 }
  - { offset: 0x1B760, size: 0x8, addend: 0x0, symName: __ZNKSt6vectorIdSaIdEE5beginEv, symObjAddr: 0x3868, symBinAddr: 0x100003FF8, symSize: 0x2C }
  - { offset: 0x1B7C6, size: 0x8, addend: 0x0, symName: __ZSt14__relocate_a_1IPdN9__gnu_cxx17__normal_iteratorIS0_vEESaIdEET0_T_S6_S5_RT1_, symObjAddr: 0x37EC, symBinAddr: 0x100003F7C, symSize: 0x7C }
  - { offset: 0x1B8DD, size: 0x8, addend: 0x0, symName: __ZNSt15__new_allocatorIdE8allocateEmPKv, symObjAddr: 0x3770, symBinAddr: 0x100003F00, symSize: 0x7C }
  - { offset: 0x1B953, size: 0x8, addend: 0x0, symName: __ZNSt15__new_allocatorIdE10deallocateEPdm, symObjAddr: 0x3740, symBinAddr: 0x100003ED0, symSize: 0x30 }
  - { offset: 0x1B9E1, size: 0x8, addend: 0x0, symName: __ZN5boost4math8policies6detail18raise_domain_errorIdEET_PKcS6_RKS4_RKNS1_12domain_errorILNS1_17error_policy_typeE0EEE, symObjAddr: 0x3704, symBinAddr: 0x100003E94, symSize: 0x3C }
  - { offset: 0x1BA42, size: 0x8, addend: 0x0, symName: __ZN5boost4math6detail13isfinite_implIdEEbT_RKNS1_10native_tagE, symObjAddr: 0x36E4, symBinAddr: 0x100003E74, symSize: 0x20 }
  - { offset: 0x1BA86, size: 0x8, addend: 0x0, symName: __ZNSt7__cxx1112basic_stringIcSt11char_traitsIcESaIcEE15_M_replace_coldEPcmPKcmm, symObjAddr: 0x354C, symBinAddr: 0x100003CDC, symSize: 0x198 }
  - { offset: 0x1BB49, size: 0x8, addend: 0x0, symName: __ZNSt7__cxx1112basic_stringIcSt11char_traitsIcESaIcEE7_S_moveEPcPKcm, symObjAddr: 0x3500, symBinAddr: 0x100003C90, symSize: 0x4C }
  - { offset: 0x1BB99, size: 0x8, addend: 0x0, symName: __ZNKSt7__cxx1112basic_stringIcSt11char_traitsIcESaIcEE11_M_disjunctEPKc, symObjAddr: 0x347C, symBinAddr: 0x100003C0C, symSize: 0x84 }
  - { offset: 0x1BC00, size: 0x8, addend: 0x0, symName: __ZSt25__uninitialized_default_nIPdmET_S1_T0_, symObjAddr: 0x342C, symBinAddr: 0x100003BBC, symSize: 0x50 }
  - { offset: 0x1BC9C, size: 0x8, addend: 0x0, symName: __ZNKSt6vectorIdSaIdEE5emptyEv, symObjAddr: 0x33D4, symBinAddr: 0x100003B64, symSize: 0x58 }
  - { offset: 0x1BD6B, size: 0x8, addend: 0x0, symName: __ZSt12construct_atIdJdEQaant20is_unbounded_array_vIT_ErqXgsnwcvPvLi0E_S0_pispcl7declvalIT0_EEEEEPS0_S3_DpOS2_, symObjAddr: 0x3364, symBinAddr: 0x100003AF4, symSize: 0x70 }
  - { offset: 0x1BDEE, size: 0x8, addend: 0x0, symName: __ZSt14__relocate_a_1IddENSt9enable_ifIXsrSt24__is_bitwise_relocatableIT_vE5valueEPS2_E4typeES4_S4_S4_RSaIT0_E, symObjAddr: 0x32BC, symBinAddr: 0x100003A4C, symSize: 0xA8 }
  - { offset: 0x1BF40, size: 0x8, addend: 0x0, symName: __ZSt10destroy_atIdEvPT_, symObjAddr: 0x32A8, symBinAddr: 0x100003A38, symSize: 0x14 }
  - { offset: 0x1BFF1, size: 0x8, addend: 0x0, symName: __ZNSt7__cxx1112basic_stringIcSt11char_traitsIcESaIcEE11_S_allocateERS3_m, symObjAddr: 0x320C, symBinAddr: 0x10000399C, symSize: 0x9C }
  - { offset: 0x1C0AC, size: 0x8, addend: 0x0, symName: __ZNSt19__ptr_traits_ptr_toIPKcS0_Lb0EE10pointer_toERS0_, symObjAddr: 0x31E4, symBinAddr: 0x100003974, symSize: 0x28 }
  - { offset: 0x1C153, size: 0x8, addend: 0x0, symName: __ZN5boost4math8policies18raise_domain_errorIdNS1_6policyINS1_14default_policyES4_S4_S4_S4_S4_S4_S4_S4_S4_S4_S4_S4_EEEET_PKcS8_RKS6_RKT0_, symObjAddr: 0x3188, symBinAddr: 0x100003918, symSize: 0x5C }
  - { offset: 0x1C1BA, size: 0x8, addend: 0x0, symName: __ZN5boost4math8isfiniteIdEEbT_, symObjAddr: 0x3168, symBinAddr: 0x1000038F8, symSize: 0x20 }
  - { offset: 0x1C21C, size: 0x8, addend: 0x0, symName: __ZNKSt7__cxx1112basic_stringIcSt11char_traitsIcESaIcEE8_M_limitEmm, symObjAddr: 0x30FC, symBinAddr: 0x10000388C, symSize: 0x6C }
  - { offset: 0x1C279, size: 0x8, addend: 0x0, symName: __ZNKSt7__cxx1112basic_stringIcSt11char_traitsIcESaIcEE8_M_checkEmPKc, symObjAddr: 0x3084, symBinAddr: 0x100003814, symSize: 0x78 }
  - { offset: 0x1C2C9, size: 0x8, addend: 0x0, symName: __ZNSt7__cxx1112basic_stringIcSt11char_traitsIcESaIcEE10_M_replaceEmmPKcm, symObjAddr: 0x2E14, symBinAddr: 0x1000035A4, symSize: 0x270 }
  - { offset: 0x1C406, size: 0x8, addend: 0x0, symName: __ZN5boost16exception_detail12refcount_ptrINS0_20error_info_containerEE7add_refEv, symObjAddr: 0x2DCC, symBinAddr: 0x10000355C, symSize: 0x48 }
  - { offset: 0x1C434, size: 0x8, addend: 0x0, symName: __ZNSt7__cxx1112basic_stringIcSt11char_traitsIcESaIcEE9_M_mutateEmmPKcm, symObjAddr: 0x2C74, symBinAddr: 0x100003404, symSize: 0x158 }
  - { offset: 0x1C4DA, size: 0x8, addend: 0x0, symName: __ZNSt7__cxx1112basic_stringIcSt11char_traitsIcESaIcEE9_M_appendEPKcm, symObjAddr: 0x2BAC, symBinAddr: 0x10000333C, symSize: 0xC8 }
  - { offset: 0x1C537, size: 0x8, addend: 0x0, symName: __ZNKSt7__cxx1112basic_stringIcSt11char_traitsIcESaIcEE15_M_check_lengthEmmPKc, symObjAddr: 0x2B38, symBinAddr: 0x1000032C8, symSize: 0x74 }
  - { offset: 0x1C5AE, size: 0x8, addend: 0x0, symName: __ZNSt6vectorIdSaIdEE12_Guard_allocD1Ev, symObjAddr: 0x2AEC, symBinAddr: 0x10000327C, symSize: 0x4C }
  - { offset: 0x1C618, size: 0x8, addend: 0x0, symName: __ZNSt6vectorIdSaIdEE12_Guard_allocC1EPdmRSt12_Vector_baseIdS0_E, symObjAddr: 0x2AA8, symBinAddr: 0x100003238, symSize: 0x44 }
  - { offset: 0x1C655, size: 0x8, addend: 0x0, symName: __ZSt27__uninitialized_default_n_aIPdmdET_S1_T0_RSaIT1_E, symObjAddr: 0x2A80, symBinAddr: 0x100003210, symSize: 0x28 }
  - { offset: 0x1C6B8, size: 0x8, addend: 0x0, symName: __ZNSt6vectorIdSaIdEE4backEv, symObjAddr: 0x29E4, symBinAddr: 0x100003174, symSize: 0x9C }
  - { offset: 0x1C76F, size: 0x8, addend: 0x0, symName: __ZNSt6vectorIdSaIdEE17_M_realloc_appendIJdEEEvDpOT_, symObjAddr: 0x2834, symBinAddr: 0x100002FC4, symSize: 0x1B0 }
  - { offset: 0x1C9C0, size: 0x8, addend: 0x0, symName: __ZNSt6vectorIdSaIdEE5beginEv, symObjAddr: 0x2808, symBinAddr: 0x100002F98, symSize: 0x2C }
  - { offset: 0x1CA14, size: 0x8, addend: 0x0, symName: __ZNSt6vectorIdSaIdEE3endEv, symObjAddr: 0x27D8, symBinAddr: 0x100002F68, symSize: 0x30 }
  - { offset: 0x1CB0C, size: 0x8, addend: 0x0, symName: __ZSt12__relocate_aIPdS0_SaIdEET0_T_S3_S2_RT1_, symObjAddr: 0x278C, symBinAddr: 0x100002F1C, symSize: 0x4C }
  - { offset: 0x1CC18, size: 0x8, addend: 0x0, symName: __ZNKSt12_Vector_baseIdSaIdEE19_M_get_Tp_allocatorEv, symObjAddr: 0x2778, symBinAddr: 0x100002F08, symSize: 0x14 }
  - { offset: 0x1CC3E, size: 0x8, addend: 0x0, symName: __ZNSt6vectorIdSaIdEE11_S_max_sizeERKS0_, symObjAddr: 0x2744, symBinAddr: 0x100002ED4, symSize: 0x34 }
  - { offset: 0x1CC8A, size: 0x8, addend: 0x0, symName: __ZSt8_DestroyIPdEvT_S1_, symObjAddr: 0x26E8, symBinAddr: 0x100002E78, symSize: 0x5C }
  - { offset: 0x1CD3A, size: 0x8, addend: 0x0, symName: __ZNSt7__cxx1112basic_stringIcSt11char_traitsIcESaIcEE13_S_copy_charsIPKcEEvPcT_S9_, symObjAddr: 0x26A0, symBinAddr: 0x100002E30, symSize: 0x48 }
  - { offset: 0x1CDDE, size: 0x8, addend: 0x0, symName: __ZNSt7__cxx1112basic_stringIcSt11char_traitsIcESaIcEE7_S_copyEPcPKcm, symObjAddr: 0x2654, symBinAddr: 0x100002DE4, symSize: 0x4C }
  - { offset: 0x1CE31, size: 0x8, addend: 0x0, symName: __ZNSt7__cxx1112basic_stringIcSt11char_traitsIcESaIcEE9_M_createERmm, symObjAddr: 0x2560, symBinAddr: 0x100002CF0, symSize: 0xF4 }
  - { offset: 0x1CE7B, size: 0x8, addend: 0x0, symName: __ZNKSt7__cxx1112basic_stringIcSt11char_traitsIcESaIcEE13_M_local_dataEv, symObjAddr: 0x2540, symBinAddr: 0x100002CD0, symSize: 0x20 }
  - { offset: 0x1CEA5, size: 0x8, addend: 0x0, symName: __ZNSt7__cxx1112basic_stringIcSt11char_traitsIcESaIcEE10_M_destroyEm, symObjAddr: 0x24A8, symBinAddr: 0x100002C38, symSize: 0x98 }
  - { offset: 0x1CF61, size: 0x8, addend: 0x0, symName: __ZN5boost4math6detail14check_locationIdNS0_8policies6policyINS3_14default_policyES5_S5_S5_S5_S5_S5_S5_S5_S5_S5_S5_S5_EEEEbPKcT_PS9_RKT0_, symObjAddr: 0x2434, symBinAddr: 0x100002BC4, symSize: 0x74 }
  - { offset: 0x1CFCC, size: 0x8, addend: 0x0, symName: __ZN5boost4math6detail11check_scaleIdNS0_8policies6policyINS3_14default_policyES5_S5_S5_S5_S5_S5_S5_S5_S5_S5_S5_S5_EEEEbPKcT_PS9_RKT0_, symObjAddr: 0x239C, symBinAddr: 0x100002B2C, symSize: 0x98 }
  - { offset: 0x1D03B, size: 0x8, addend: 0x0, symName: __ZNSt7__cxx1112basic_stringIcSt11char_traitsIcESaIcEE7replaceEmmPKcm, symObjAddr: 0x2330, symBinAddr: 0x100002AC0, symSize: 0x6C }
  - { offset: 0x1D0AD, size: 0x8, addend: 0x0, symName: __ZNKSt7__cxx1112basic_stringIcSt11char_traitsIcESaIcEE4findEPKcmm, symObjAddr: 0x21CC, symBinAddr: 0x10000295C, symSize: 0x164 }
  - { offset: 0x1D172, size: 0x8, addend: 0x0, symName: __ZN5boost16exception_detail12refcount_ptrINS0_20error_info_containerEE5adoptEPS2_, symObjAddr: 0x2194, symBinAddr: 0x100002924, symSize: 0x38 }
  - { offset: 0x1D1AC, size: 0x8, addend: 0x0, symName: __ZN5boost16exception_detail12refcount_ptrINS0_20error_info_containerEE7releaseEv, symObjAddr: 0x2120, symBinAddr: 0x1000028B0, symSize: 0x74 }
  - { offset: 0x1D1D6, size: 0x8, addend: 0x0, symName: __ZNSt7__cxx1112basic_stringIcSt11char_traitsIcESaIcEE6appendEPKc, symObjAddr: 0x20D4, symBinAddr: 0x100002864, symSize: 0x4C }
  - { offset: 0x1D222, size: 0x8, addend: 0x0, symName: __ZNKSt6vectorIN4yvan6option12OptionParamsESaIS2_EEixEm, symObjAddr: 0x2044, symBinAddr: 0x1000027D4, symSize: 0x90 }
  - { offset: 0x1D27A, size: 0x8, addend: 0x0, symName: __ZNSt6vectorIdSaIdEEixEm, symObjAddr: 0x1FC0, symBinAddr: 0x100002750, symSize: 0x84 }
  - { offset: 0x1D2D0, size: 0x8, addend: 0x0, symName: __ZNSt6vectorIdSaIdEE15_M_erase_at_endEPd, symObjAddr: 0x1F38, symBinAddr: 0x1000026C8, symSize: 0x88 }
  - { offset: 0x1D365, size: 0x8, addend: 0x0, symName: __ZNSt6vectorIdSaIdEE17_M_default_appendEm, symObjAddr: 0x1D18, symBinAddr: 0x1000024A8, symSize: 0x220 }
  - { offset: 0x1D42F, size: 0x8, addend: 0x0, symName: __ZNKSt6vectorIdSaIdEE12_M_check_lenEmPKc, symObjAddr: 0x1C48, symBinAddr: 0x1000023D8, symSize: 0xD0 }
  - { offset: 0x1D488, size: 0x8, addend: 0x0, symName: __ZSt3maxImERKT_S2_S2_, symObjAddr: 0x1C10, symBinAddr: 0x1000023A0, symSize: 0x38 }
  - { offset: 0x1D4D0, size: 0x8, addend: 0x0, symName: __ZNSt6vectorIdSaIdEE12emplace_backIJdEEERdDpOT_, symObjAddr: 0x1B68, symBinAddr: 0x1000022F8, symSize: 0xA8 }
  - { offset: 0x1D5FB, size: 0x8, addend: 0x0, symName: __ZNSt6vectorIdSaIdEE11_S_relocateEPdS2_S2_RS0_, symObjAddr: 0x1B34, symBinAddr: 0x1000022C4, symSize: 0x34 }
  - { offset: 0x1D65C, size: 0x8, addend: 0x0, symName: __ZNSt12_Vector_baseIdSaIdEE11_M_allocateEm, symObjAddr: 0x1A70, symBinAddr: 0x100002200, symSize: 0xC4 }
  - { offset: 0x1D70A, size: 0x8, addend: 0x0, symName: __ZNKSt6vectorIdSaIdEE8capacityEv, symObjAddr: 0x1A30, symBinAddr: 0x1000021C0, symSize: 0x40 }
  - { offset: 0x1D745, size: 0x8, addend: 0x0, symName: __ZNKSt6vectorIdSaIdEE8max_sizeEv, symObjAddr: 0x1A10, symBinAddr: 0x1000021A0, symSize: 0x20 }
  - { offset: 0x1D7AA, size: 0x8, addend: 0x0, symName: __ZNSt12_Vector_baseIdSaIdEE19_M_get_Tp_allocatorEv, symObjAddr: 0x19FC, symBinAddr: 0x10000218C, symSize: 0x14 }
  - { offset: 0x1D7D4, size: 0x8, addend: 0x0, symName: __ZNSt12_Vector_baseIdSaIdEE13_M_deallocateEPdm, symObjAddr: 0x1970, symBinAddr: 0x100002100, symSize: 0x8C }
  - { offset: 0x1D8A6, size: 0x8, addend: 0x0, symName: __ZNSt7__cxx1112basic_stringIcSt11char_traitsIcESaIcEE12_M_constructIPKcEEvT_S8_St20forward_iterator_tag, symObjAddr: 0x1830, symBinAddr: 0x100001FC0, symSize: 0x140 }
  - { offset: 0x1D9A4, size: 0x8, addend: 0x0, symName: __ZZNSt7__cxx1112basic_stringIcSt11char_traitsIcESaIcEE12_M_constructIPKcEEvT_S8_St20forward_iterator_tagEN6_GuardC1EPS4_, symObjAddr: 0x17D8, symBinAddr: 0x100001F68, symSize: 0x24 }
  - { offset: 0x1D9D7, size: 0x8, addend: 0x0, symName: __ZZNSt7__cxx1112basic_stringIcSt11char_traitsIcESaIcEE12_M_constructIPKcEEvT_S8_St20forward_iterator_tagEN6_GuardD1Ev, symObjAddr: 0x17FC, symBinAddr: 0x100001F8C, symSize: 0x34 }
  - { offset: 0x1DB08, size: 0x8, addend: 0x0, symName: __ZNSt7__cxx1112basic_stringIcSt11char_traitsIcESaIcEE12_Alloc_hiderC1EPcRKS3_, symObjAddr: 0x1788, symBinAddr: 0x100001F18, symSize: 0x50 }
  - { offset: 0x1DB98, size: 0x8, addend: 0x0, symName: __ZNKSt7__cxx1112basic_stringIcSt11char_traitsIcESaIcEE4dataEv, symObjAddr: 0x176C, symBinAddr: 0x100001EFC, symSize: 0x1C }
  - { offset: 0x1DBD8, size: 0x8, addend: 0x0, symName: __ZNSt7__cxx1112basic_stringIcSt11char_traitsIcESaIcEE11_M_capacityEm, symObjAddr: 0x1748, symBinAddr: 0x100001ED8, symSize: 0x24 }
  - { offset: 0x1DC13, size: 0x8, addend: 0x0, symName: __ZNSt7__cxx1112basic_stringIcSt11char_traitsIcESaIcEE7_M_dataEPc, symObjAddr: 0x1724, symBinAddr: 0x100001EB4, symSize: 0x24 }
  - { offset: 0x1DC4D, size: 0x8, addend: 0x0, symName: __ZNKSt7__cxx1112basic_stringIcSt11char_traitsIcESaIcEE6lengthEv, symObjAddr: 0x1708, symBinAddr: 0x100001E98, symSize: 0x1C }
  - { offset: 0x1DC77, size: 0x8, addend: 0x0, symName: __ZNSt7__cxx1112basic_stringIcSt11char_traitsIcESaIcEE16_M_get_allocatorEv, symObjAddr: 0x16F4, symBinAddr: 0x100001E84, symSize: 0x14 }
  - { offset: 0x1DCA1, size: 0x8, addend: 0x0, symName: __ZNKSt7__cxx1112basic_stringIcSt11char_traitsIcESaIcEE11_M_is_localEv, symObjAddr: 0x168C, symBinAddr: 0x100001E1C, symSize: 0x68 }
  - { offset: 0x1DCCB, size: 0x8, addend: 0x0, symName: __ZNKSt7__cxx1112basic_stringIcSt11char_traitsIcESaIcEE8capacityEv, symObjAddr: 0x1608, symBinAddr: 0x100001D98, symSize: 0x84 }
  - { offset: 0x1DD06, size: 0x8, addend: 0x0, symName: __ZNSt7__cxx1112basic_stringIcSt11char_traitsIcESaIcEE10_M_disposeEv, symObjAddr: 0x15C0, symBinAddr: 0x100001D50, symSize: 0x48 }
  - { offset: 0x1DD30, size: 0x8, addend: 0x0, symName: __ZNSt7__cxx1112basic_stringIcSt11char_traitsIcESaIcEE9_M_lengthEm, symObjAddr: 0x159C, symBinAddr: 0x100001D2C, symSize: 0x24 }
  - { offset: 0x1DD66, size: 0x8, addend: 0x0, symName: __ZN9__gnu_cxx11char_traitsIcE2eqERKcS3_, symObjAddr: 0x156C, symBinAddr: 0x100001CFC, symSize: 0x30 }
  - { offset: 0x1DE18, size: 0x8, addend: 0x0, symName: __ZN5boost4math19normal_distributionIdNS0_8policies6policyINS2_14default_policyES4_S4_S4_S4_S4_S4_S4_S4_S4_S4_S4_S4_EEEC1Edd, symObjAddr: 0x14E8, symBinAddr: 0x100001C78, symSize: 0x84 }
  - { offset: 0x1DE8C, size: 0x8, addend: 0x0, symName: __ZNKSt7__cxx1112basic_stringIcSt11char_traitsIcESaIcEE7_M_dataEv, symObjAddr: 0x14D0, symBinAddr: 0x100001C60, symSize: 0x18 }
  - { offset: 0x1DEB6, size: 0x8, addend: 0x0, symName: __ZNSt7__cxx1112basic_stringIcSt11char_traitsIcESaIcEE7replaceEmmPKc, symObjAddr: 0x1490, symBinAddr: 0x100001C20, symSize: 0x40 }
  - { offset: 0x1DF13, size: 0x8, addend: 0x0, symName: __ZNKSt7__cxx1112basic_stringIcSt11char_traitsIcESaIcEE4findEPKcm, symObjAddr: 0x1458, symBinAddr: 0x100001BE8, symSize: 0x38 }
  - { offset: 0x1DF5F, size: 0x8, addend: 0x0, symName: __ZNKSt7__cxx1112basic_stringIcSt11char_traitsIcESaIcEE8max_sizeEv, symObjAddr: 0x1420, symBinAddr: 0x100001BB0, symSize: 0x38 }
  - { offset: 0x1DFA7, size: 0x8, addend: 0x0, symName: __ZSt3minImERKT_S2_S2_, symObjAddr: 0x13E8, symBinAddr: 0x100001B78, symSize: 0x38 }
  - { offset: 0x1DFED, size: 0x8, addend: 0x0, symName: __ZN5boost16exception_detail12refcount_ptrINS0_20error_info_containerEEaSERKS3_, symObjAddr: 0x13B8, symBinAddr: 0x100001B48, symSize: 0x30 }
  - { offset: 0x1E027, size: 0x8, addend: 0x0, symName: __ZNK5boost16exception_detail12refcount_ptrINS0_20error_info_containerEE3getEv, symObjAddr: 0x13A0, symBinAddr: 0x100001B30, symSize: 0x18 }
  - { offset: 0x1E06B, size: 0x8, addend: 0x0, symName: __ZN5boost16exception_detail12refcount_ptrINS0_20error_info_containerEED1Ev, symObjAddr: 0x1380, symBinAddr: 0x100001B10, symSize: 0x20 }
  - { offset: 0x1E0AB, size: 0x8, addend: 0x0, symName: __ZN5boost16exception_detail12refcount_ptrINS0_20error_info_containerEEC1Ev, symObjAddr: 0x1364, symBinAddr: 0x100001AF4, symSize: 0x1C }
  - { offset: 0x1E0D1, size: 0x8, addend: 0x0, symName: __ZNSt7__cxx1112basic_stringIcSt11char_traitsIcESaIcEEpLEPKc, symObjAddr: 0x1340, symBinAddr: 0x100001AD0, symSize: 0x24 }
  - { offset: 0x1E153, size: 0x8, addend: 0x0, symName: __ZNSt7__cxx1112basic_stringIcSt11char_traitsIcESaIcEEC1IS3_EEPKcRKS3_, symObjAddr: 0x12A4, symBinAddr: 0x100001A34, symSize: 0x9C }
  - { offset: 0x1E1B8, size: 0x8, addend: 0x0, symName: __ZNK4yvan4util6Grid2DINS_6option12OptionParamsEEclEmm, symObjAddr: 0x1260, symBinAddr: 0x1000019F0, symSize: 0x44 }
  - { offset: 0x1E202, size: 0x8, addend: 0x0, symName: __ZN4yvan4util6Grid2DIdEclEmm, symObjAddr: 0x121C, symBinAddr: 0x1000019AC, symSize: 0x44 }
  - { offset: 0x1E24C, size: 0x8, addend: 0x0, symName: __ZNSt6vectorIdSaIdEE6resizeEm, symObjAddr: 0x116C, symBinAddr: 0x1000018FC, symSize: 0xB0 }
  - { offset: 0x1E287, size: 0x8, addend: 0x0, symName: __ZNSt6vectorIdSaIdEE9push_backEOd, symObjAddr: 0x1138, symBinAddr: 0x1000018C8, symSize: 0x34 }
  - { offset: 0x1E2FC, size: 0x8, addend: 0x0, symName: __ZNKSt6vectorIN4yvan6option12OptionParamsESaIS2_EE3endEv, symObjAddr: 0x1108, symBinAddr: 0x100001898, symSize: 0x30 }
  - { offset: 0x1E350, size: 0x8, addend: 0x0, symName: __ZNKSt6vectorIN4yvan6option12OptionParamsESaIS2_EE5beginEv, symObjAddr: 0x10DC, symBinAddr: 0x10000186C, symSize: 0x2C }
  - { offset: 0x1E3A4, size: 0x8, addend: 0x0, symName: __ZNSt6vectorIdSaIdEE7reserveEm, symObjAddr: 0xFA0, symBinAddr: 0x100001730, symSize: 0x13C }
  - { offset: 0x1E411, size: 0x8, addend: 0x0, symName: __ZNKSt6vectorIdSaIdEE4sizeEv, symObjAddr: 0xF60, symBinAddr: 0x1000016F0, symSize: 0x40 }
  - { offset: 0x1E44C, size: 0x8, addend: 0x0, symName: __ZNKSt6vectorIN4yvan6option12OptionParamsESaIS2_EE4sizeEv, symObjAddr: 0xF0C, symBinAddr: 0x10000169C, symSize: 0x54 }
  - { offset: 0x1E4A1, size: 0x8, addend: 0x0, symName: __ZNSt6vectorIdSaIdEED1Ev, symObjAddr: 0xEB0, symBinAddr: 0x100001640, symSize: 0x5C }
  - { offset: 0x1E517, size: 0x8, addend: 0x0, symName: __ZNSt12_Vector_baseIdSaIdEED2Ev, symObjAddr: 0xE60, symBinAddr: 0x1000015F0, symSize: 0x50 }
  - { offset: 0x1E56D, size: 0x8, addend: 0x0, symName: __ZNSt7__cxx1112basic_stringIcSt11char_traitsIcESaIcEED1Ev, symObjAddr: 0xE38, symBinAddr: 0x1000015C8, symSize: 0x28 }
  - { offset: 0x1E593, size: 0x8, addend: 0x0, symName: __ZNSt7__cxx1112basic_stringIcSt11char_traitsIcESaIcEE13_M_set_lengthEm, symObjAddr: 0xDF0, symBinAddr: 0x100001580, symSize: 0x48 }
  - { offset: 0x1E5CE, size: 0x8, addend: 0x0, symName: __ZNKSt7__cxx1112basic_stringIcSt11char_traitsIcESaIcEE5c_strEv, symObjAddr: 0xDD4, symBinAddr: 0x100001564, symSize: 0x1C }
  - { offset: 0x1E5F4, size: 0x8, addend: 0x0, symName: __ZN9__gnu_cxx11char_traitsIcE4copyEPcPKcm, symObjAddr: 0xD20, symBinAddr: 0x1000014B0, symSize: 0xB4 }
  - { offset: 0x1E67E, size: 0x8, addend: 0x0, symName: __ZN9__gnu_cxx11char_traitsIcE4moveEPcPKcm, symObjAddr: 0xCB4, symBinAddr: 0x100001444, symSize: 0x6C }
  - { offset: 0x1E6E0, size: 0x8, addend: 0x0, symName: __ZN9__gnu_cxx11char_traitsIcE4findEPKcmRS2_, symObjAddr: 0xC40, symBinAddr: 0x1000013D0, symSize: 0x74 }
  - { offset: 0x1E74C, size: 0x8, addend: 0x0, symName: __ZN9__gnu_cxx11char_traitsIcE6lengthEPKc, symObjAddr: 0xBE8, symBinAddr: 0x100001378, symSize: 0x58 }
  - { offset: 0x1E785, size: 0x8, addend: 0x0, symName: __ZSt12construct_atIcJRKcEQaant20is_unbounded_array_vIT_ErqXgsnwcvPvLi0E_S2_pispcl7declvalIT0_EEEEEPS2_S5_DpOS4_, symObjAddr: 0xB78, symBinAddr: 0x100001308, symSize: 0x70 }
  - { offset: 0x1E80C, size: 0x8, addend: 0x0, symName: __ZNK4yvan6engine8BSEngine5priceERKNS_6option12OptionParamsE, symObjAddr: 0xA48, symBinAddr: 0x1000011D8, symSize: 0x130 }
  - { offset: 0x1E8B8, size: 0x8, addend: 0x0, symName: __ZNK4yvan6engine8BSEngine2d2ERKNS_6option12OptionParamsE, symObjAddr: 0x9F0, symBinAddr: 0x100001180, symSize: 0x58 }
  - { offset: 0x1E8F2, size: 0x8, addend: 0x0, symName: __ZNK4yvan6engine8BSEngine2d1ERKNS_6option12OptionParamsE, symObjAddr: 0x940, symBinAddr: 0x1000010D0, symSize: 0xB0 }
  - { offset: 0x1E948, size: 0x8, addend: 0x0, symName: __ZN5boost4math8policies6detail7name_ofIdEEPKcv, symObjAddr: 0x934, symBinAddr: 0x1000010C4, symSize: 0xC }
  - { offset: 0x1E970, size: 0x8, addend: 0x0, symName: __ZN5boost4math8policies6detail21replace_all_in_stringERNSt7__cxx1112basic_stringIcSt11char_traitsIcESaIcEEEPKcSB_, symObjAddr: 0x89C, symBinAddr: 0x10000102C, symSize: 0x98 }
  - { offset: 0x1E9E9, size: 0x8, addend: 0x0, symName: __ZSt12setprecisioni, symObjAddr: 0x888, symBinAddr: 0x100001018, symSize: 0x14 }
  - { offset: 0x1EA16, size: 0x8, addend: 0x0, symName: __ZNKSt7__cxx1112basic_stringIcSt11char_traitsIcESaIcEE4sizeEv, symObjAddr: 0x838, symBinAddr: 0x100000FC8, symSize: 0x50 }
  - { offset: 0x1EA53, size: 0x8, addend: 0x0, symName: __ZN5boost36throw_exception_assert_compatibilityERKSt9exception, symObjAddr: 0x824, symBinAddr: 0x100000FB4, symSize: 0x14 }
  - { offset: 0x1EA75, size: 0x8, addend: 0x0, symName: __ZN5boost16exception_detail20copy_boost_exceptionEPNS_9exceptionEPKS1_, symObjAddr: 0x72C, symBinAddr: 0x100000EBC, symSize: 0xF8 }
  - { offset: 0x1EAF7, size: 0x8, addend: 0x0, symName: __ZN5boost16exception_detail10clone_baseD2Ev, symObjAddr: 0x704, symBinAddr: 0x100000E94, symSize: 0x28 }
  - { offset: 0x1EB37, size: 0x8, addend: 0x0, symName: __ZN5boost9exceptionD2Ev, symObjAddr: 0x6CC, symBinAddr: 0x100000E5C, symSize: 0x38 }
  - { offset: 0x1EB77, size: 0x8, addend: 0x0, symName: __ZN5boost9exceptionC2Ev, symObjAddr: 0x66C, symBinAddr: 0x100000DFC, symSize: 0x60 }
  - { offset: 0x1EB99, size: 0x8, addend: 0x0, symName: __ZSt8isfinited, symObjAddr: 0x62C, symBinAddr: 0x100000DBC, symSize: 0x40 }
  - { offset: 0x1EBC3, size: 0x8, addend: 0x0, symName: __ZNSt14numeric_limitsIdE9quiet_NaNEv, symObjAddr: 0x61C, symBinAddr: 0x100000DAC, symSize: 0x10 }
  - { offset: 0x1EBDF, size: 0x8, addend: 0x0, symName: __ZNK4yvan6engine7IPricer5priceERKNS_4util6Grid2DINS_6option12OptionParamsEEE, symObjAddr: 0x500, symBinAddr: 0x100000C90, symSize: 0x11C }
  - { offset: 0x1EC8C, size: 0x8, addend: 0x0, symName: __ZN4yvan4util6Grid2DIdED1Ev, symObjAddr: 0x4E0, symBinAddr: 0x100000C70, symSize: 0x20 }
  - { offset: 0x1ECB2, size: 0x8, addend: 0x0, symName: __ZNK4yvan6engine7IPricer5priceERKSt6vectorINS_6option12OptionParamsESaIS4_EE, symObjAddr: 0x3D4, symBinAddr: 0x100000B64, symSize: 0x10C }
  - { offset: 0x1EE7B, size: 0x8, addend: 0x0, symName: __ZNSt12_Vector_baseIdSaIdEE12_Vector_implD1Ev, symObjAddr: 0x3B4, symBinAddr: 0x100000B44, symSize: 0x20 }
  - { offset: 0x1EFA3, size: 0x8, addend: 0x0, symName: __ZNSt19__ptr_traits_ptr_toIPccLb0EE10pointer_toERc, symObjAddr: 0x38C, symBinAddr: 0x100000B1C, symSize: 0x28 }
  - { offset: 0x1F016, size: 0x8, addend: 0x0, symName: __ZNSt7__cxx1112basic_stringIcSt11char_traitsIcESaIcEE13_M_local_dataEv, symObjAddr: 0x36C, symBinAddr: 0x100000AFC, symSize: 0x20 }
  - { offset: 0x1F05D, size: 0x8, addend: 0x0, symName: __ZNSt7__cxx1112basic_stringIcSt11char_traitsIcESaIcEE12_Alloc_hiderD1Ev, symObjAddr: 0x34C, symBinAddr: 0x100000ADC, symSize: 0x20 }
  - { offset: 0x1F0A2, size: 0x8, addend: 0x0, symName: __ZSt17__size_to_integerm, symObjAddr: 0x338, symBinAddr: 0x100000AC8, symSize: 0x14 }
  - { offset: 0x1F0CC, size: 0x8, addend: 0x0, symName: __ZNSt11char_traitsIcE4copyEPcPKcm, symObjAddr: 0x2C0, symBinAddr: 0x100000A50, symSize: 0x78 }
  - { offset: 0x1F132, size: 0x8, addend: 0x0, symName: __ZNSt11char_traitsIcE4moveEPcPKcm, symObjAddr: 0x258, symBinAddr: 0x1000009E8, symSize: 0x68 }
  - { offset: 0x1F198, size: 0x8, addend: 0x0, symName: __ZNSt11char_traitsIcE4findEPKcmRS1_, symObjAddr: 0x1E8, symBinAddr: 0x100000978, symSize: 0x70 }
  - { offset: 0x1F1FE, size: 0x8, addend: 0x0, symName: __ZNSt11char_traitsIcE6lengthEPKc, symObjAddr: 0x1AC, symBinAddr: 0x10000093C, symSize: 0x3C }
  - { offset: 0x1F242, size: 0x8, addend: 0x0, symName: __ZNSt11char_traitsIcE7compareEPKcS2_m, symObjAddr: 0xBC, symBinAddr: 0x10000084C, symSize: 0xF0 }
  - { offset: 0x1F2CC, size: 0x8, addend: 0x0, symName: __ZNSt11char_traitsIcE2ltERKcS2_, symObjAddr: 0x84, symBinAddr: 0x100000814, symSize: 0x38 }
  - { offset: 0x1F307, size: 0x8, addend: 0x0, symName: __ZNSt11char_traitsIcE6assignERcRKc, symObjAddr: 0x38, symBinAddr: 0x1000007C8, symSize: 0x4C }
  - { offset: 0x1F363, size: 0x8, addend: 0x0, symName: __ZdlPvS_, symObjAddr: 0x20, symBinAddr: 0x1000007B0, symSize: 0x18 }
  - { offset: 0x1F399, size: 0x8, addend: 0x0, symName: __ZnwmPv, symObjAddr: 0x8, symBinAddr: 0x100000798, symSize: 0x18 }
  - { offset: 0x1F3CB, size: 0x8, addend: 0x0, symName: __ZSt21is_constant_evaluatedv, symObjAddr: 0x0, symBinAddr: 0x100000790, symSize: 0x8 }
  - { offset: 0x1F3FE, size: 0x8, addend: 0x0, symName: __ZNK4yvan6option14EuropeanOption5styleEv, symObjAddr: 0x0, symBinAddr: 0x100004D94, symSize: 0x14 }
  - { offset: 0x2253A, size: 0x8, addend: 0x0, symName: __ZN4yvan6option14EuropeanOptionD0Ev, symObjAddr: 0x1E8, symBinAddr: 0x100004F7C, symSize: 0x28 }
  - { offset: 0x22564, size: 0x8, addend: 0x0, symName: __ZN4yvan6option14EuropeanOptionD1Ev, symObjAddr: 0x1B4, symBinAddr: 0x100004F48, symSize: 0x34 }
  - { offset: 0x2258C, size: 0x8, addend: 0x0, symName: __ZSt3maxIdERKT_S2_S2_, symObjAddr: 0x178, symBinAddr: 0x100004F0C, symSize: 0x3C }
  - { offset: 0x225D4, size: 0x8, addend: 0x0, symName: __ZNK4yvan6option14EuropeanOption6payoffEv, symObjAddr: 0x11C, symBinAddr: 0x100004EB0, symSize: 0x5C }
  - { offset: 0x22645, size: 0x8, addend: 0x0, symName: __ZN4yvan6option14EuropeanOptionC1ERKNS0_12OptionParamsE, symObjAddr: 0xE0, symBinAddr: 0x100004E74, symSize: 0x3C }
  - { offset: 0x22678, size: 0x8, addend: 0x0, symName: __ZN4yvan6option14EuropeanOptionC2ERKNS0_12OptionParamsE, symObjAddr: 0xA4, symBinAddr: 0x100004E38, symSize: 0x3C }
  - { offset: 0x226C1, size: 0x8, addend: 0x0, symName: __ZN4yvan6option14EuropeanOptionC1Ev, symObjAddr: 0x70, symBinAddr: 0x100004E04, symSize: 0x34 }
  - { offset: 0x226EB, size: 0x8, addend: 0x0, symName: __ZN4yvan6option14EuropeanOptionC2Ev, symObjAddr: 0x3C, symBinAddr: 0x100004DD0, symSize: 0x34 }
  - { offset: 0x2272B, size: 0x8, addend: 0x0, symName: __ZN4yvan6option6OptionD2Ev, symObjAddr: 0x14, symBinAddr: 0x100004DA8, symSize: 0x28 }
  - { offset: 0x22751, size: 0x8, addend: 0x0, symName: __ZNK4yvan6option14EuropeanOption5styleEv, symObjAddr: 0x0, symBinAddr: 0x100004D94, symSize: 0x14 }
  - { offset: 0x2278B, size: 0x8, addend: 0x0, symName: __ZN4yvan6option6OptionC2Ev, symObjAddr: 0x0, symBinAddr: 0x100004FA4, symSize: 0x68 }
  - { offset: 0x24FB5, size: 0x8, addend: 0x0, symName: __ZN4yvan6option6Option11switch_typeEv, symObjAddr: 0x390, symBinAddr: 0x100005334, symSize: 0x40 }
  - { offset: 0x24FDF, size: 0x8, addend: 0x0, symName: __ZNK4yvan6option6Option15validate_paramsEv, symObjAddr: 0x198, symBinAddr: 0x10000513C, symSize: 0x1F8 }
  - { offset: 0x25030, size: 0x8, addend: 0x0, symName: __ZN4yvan6option6OptionC1ERKNS0_12OptionParamsE, symObjAddr: 0x134, symBinAddr: 0x1000050D8, symSize: 0x64 }
  - { offset: 0x25063, size: 0x8, addend: 0x0, symName: __ZN4yvan6option6OptionC2ERKNS0_12OptionParamsE, symObjAddr: 0xD0, symBinAddr: 0x100005074, symSize: 0x64 }
  - { offset: 0x250AC, size: 0x8, addend: 0x0, symName: __ZN4yvan6option6OptionC1Ev, symObjAddr: 0x68, symBinAddr: 0x10000500C, symSize: 0x68 }
  - { offset: 0x250D6, size: 0x8, addend: 0x0, symName: __ZN4yvan6option6OptionC2Ev, symObjAddr: 0x0, symBinAddr: 0x100004FA4, symSize: 0x68 }
  - { offset: 0x2FF62, size: 0x8, addend: 0x0, symName: __ZN5boost10wrapexceptISt14overflow_errorE7deleterD1Ev, symObjAddr: 0x45D0, symBinAddr: 0x100006FB4, symSize: 0x38 }
  - { offset: 0x2FF88, size: 0x8, addend: 0x0, symName: __ZNK5boost10wrapexceptISt14overflow_errorE7rethrowEv, symObjAddr: 0x4348, symBinAddr: 0x100006F60, symSize: 0x54 }
  - { offset: 0x2FFB2, size: 0x8, addend: 0x0, symName: __ZNK5boost10wrapexceptISt14overflow_errorE5cloneEv, symObjAddr: 0x4260, symBinAddr: 0x100006E78, symSize: 0xE8 }
  - { offset: 0x3001E, size: 0x8, addend: 0x0, symName: __ZN5boost10wrapexceptISt14overflow_errorEC1ERKS2_, symObjAddr: 0x419C, symBinAddr: 0x100006DB4, symSize: 0xC4 }
  - { offset: 0x3004D, size: 0x8, addend: 0x0, symName: __ZN5boost10wrapexceptISt14overflow_errorE9copy_fromEPKv, symObjAddr: 0x40CC, symBinAddr: 0x100006D9C, symSize: 0x18 }
  - { offset: 0x300A7, size: 0x8, addend: 0x0, symName: __ZN5boost10wrapexceptISt14overflow_errorEC1ERKS1_, symObjAddr: 0x4044, symBinAddr: 0x100006D14, symSize: 0x88 }
  - { offset: 0x300F5, size: 0x8, addend: 0x0, symName: __ZNSt14overflow_errorC2ERKS_, symObjAddr: 0x4008, symBinAddr: 0x100006CD8, symSize: 0x3C }
  - { offset: 0x30120, size: 0x8, addend: 0x0, symName: __ZN5boost15throw_exceptionISt14overflow_errorEEvRKT_, symObjAddr: 0x3F50, symBinAddr: 0x100006C7C, symSize: 0x5C }
  - { offset: 0x30173, size: 0x8, addend: 0x0, symName: __ZN5boost10wrapexceptISt14overflow_errorED0Ev, symObjAddr: 0x3F18, symBinAddr: 0x100006C44, symSize: 0x28 }
  - { offset: 0x3019D, size: 0x8, addend: 0x0, symName: __ZN5boost10wrapexceptISt14overflow_errorED1Ev, symObjAddr: 0x3E94, symBinAddr: 0x100006BC0, symSize: 0x74 }
  - { offset: 0x301BF, size: 0x8, addend: 0x0, symName: __ZN5boost4math8policies6detail11prec_formatIeEENSt7__cxx1112basic_stringIcSt11char_traitsIcESaIcEEERKT_, symObjAddr: 0x3E00, symBinAddr: 0x100006B2C, symSize: 0x94 }
  - { offset: 0x30238, size: 0x8, addend: 0x0, symName: __ZN5boost4math8policies6detail11raise_errorISt14overflow_errordEEvPKcS6_, symObjAddr: 0x3B40, symBinAddr: 0x100006A00, symSize: 0x12C }
  - { offset: 0x3036D, size: 0x8, addend: 0x0, symName: __ZN5boost4math8policies6detail11raise_errorISt12domain_erroreEEvPKcS6_RKT0_, symObjAddr: 0x3998, symBinAddr: 0x100006858, symSize: 0x1A8 }
  - { offset: 0x3053E, size: 0x8, addend: 0x0, symName: __ZN5boost4math8policies6detail20raise_overflow_errorIdEET_PKcS6_RKNS1_14overflow_errorILNS1_17error_policy_typeE0EEE, symObjAddr: 0x3778, symBinAddr: 0x100006808, symSize: 0x50 }
  - { offset: 0x30591, size: 0x8, addend: 0x0, symName: __ZN5boost4math5tools6detail25evaluate_polynomial_c_impIeeEET0_PKT_RKS4_PKSt17integral_constantIiLi7EE, symObjAddr: 0x3660, symBinAddr: 0x1000066F0, symSize: 0x118 }
  - { offset: 0x30611, size: 0x8, addend: 0x0, symName: __ZN5boost4math5tools6detail25evaluate_polynomial_c_impIeeEET0_PKT_RKS4_PKSt17integral_constantIiLi6EE, symObjAddr: 0x3570, symBinAddr: 0x100006600, symSize: 0xF0 }
  - { offset: 0x30685, size: 0x8, addend: 0x0, symName: __ZN5boost4math5tools6detail25evaluate_polynomial_c_impIeeEET0_PKT_RKS4_PKSt17integral_constantIiLi5EE, symObjAddr: 0x34A8, symBinAddr: 0x100006538, symSize: 0xC8 }
  - { offset: 0x306FF, size: 0x8, addend: 0x0, symName: __ZN5boost4math8policies6detail18raise_domain_errorIeEET_PKcS6_RKS4_RKNS1_12domain_errorILNS1_17error_policy_typeE0EEE, symObjAddr: 0x346C, symBinAddr: 0x1000064FC, symSize: 0x3C }
  - { offset: 0x30823, size: 0x8, addend: 0x0, symName: __ZN5boost4math5tools9max_valueIdEET_v, symObjAddr: 0x322C, symBinAddr: 0x1000064E0, symSize: 0x1C }
  - { offset: 0x3085C, size: 0x8, addend: 0x0, symName: __ZN5boost4math5tools19evaluate_polynomialILm7EeeEET1_RAT__KT0_RKS3_, symObjAddr: 0x31FC, symBinAddr: 0x1000064B0, symSize: 0x30 }
  - { offset: 0x308C8, size: 0x8, addend: 0x0, symName: __ZN5boost4math5tools19evaluate_polynomialILm6EeeEET1_RAT__KT0_RKS3_, symObjAddr: 0x31CC, symBinAddr: 0x100006480, symSize: 0x30 }
  - { offset: 0x30934, size: 0x8, addend: 0x0, symName: __ZN5boost4math5tools19evaluate_polynomialILm5EeeEET1_RAT__KT0_RKS3_, symObjAddr: 0x319C, symBinAddr: 0x100006450, symSize: 0x30 }
  - { offset: 0x3098F, size: 0x8, addend: 0x0, symName: __ZN5boost4math8policies18raise_domain_errorIeNS1_6policyINS1_13promote_floatILb0EEENS1_14promote_doubleILb0EEENS1_14default_policyES8_S8_S8_S8_S8_S8_S8_S8_S8_S8_EEEET_PKcSC_RKSA_RKT0_, symObjAddr: 0x3140, symBinAddr: 0x1000063F4, symSize: 0x5C }
  - { offset: 0x309F6, size: 0x8, addend: 0x0, symName: __ZN5boost4math9constants6detail17constant_root_twoIdE3getERKSt17integral_constantIiLi2EE, symObjAddr: 0x3124, symBinAddr: 0x1000063D8, symSize: 0x1C }
  - { offset: 0x30A1E, size: 0x8, addend: 0x0, symName: __ZN5boost4math6detail10isnan_implIeEEbT_RKNS1_10native_tagE, symObjAddr: 0x30A8, symBinAddr: 0x1000063B8, symSize: 0x20 }
  - { offset: 0x30AAD, size: 0x8, addend: 0x0, symName: __ZN5boost4math6detail7erf_impIeNS0_8policies6policyINS3_13promote_floatILb0EEENS3_14promote_doubleILb0EEENS3_14default_policyES9_S9_S9_S9_S9_S9_S9_S9_S9_S9_EEEET_SB_bRKT0_RKSt17integral_constantIiLi53EE, symObjAddr: 0x2670, symBinAddr: 0x100005CAC, symSize: 0x70C }
  - { offset: 0x30BAD, size: 0x8, addend: 0x0, symName: __ZZN5boost4math6detail7erf_impIeNS0_8policies6policyINS3_13promote_floatILb0EEENS3_14promote_doubleILb0EEENS3_14default_policyES9_S9_S9_S9_S9_S9_S9_S9_S9_S9_EEEET_SB_bRKT0_RKSt17integral_constantIiLi53EEE1P, symObjAddr: 0x52E8, symBinAddr: 0x10000C060, symSize: 0x0 }
  - { offset: 0x30BC9, size: 0x8, addend: 0x0, symName: __ZZN5boost4math6detail7erf_impIeNS0_8policies6policyINS3_13promote_floatILb0EEENS3_14promote_doubleILb0EEENS3_14default_policyES9_S9_S9_S9_S9_S9_S9_S9_S9_S9_EEEET_SB_bRKT0_RKSt17integral_constantIiLi53EEE1Q, symObjAddr: 0x5310, symBinAddr: 0x10000C088, symSize: 0x0 }
  - { offset: 0x30C25, size: 0x8, addend: 0x0, symName: __ZZN5boost4math6detail7erf_impIeNS0_8policies6policyINS3_13promote_floatILb0EEENS3_14promote_doubleILb0EEENS3_14default_policyES9_S9_S9_S9_S9_S9_S9_S9_S9_S9_EEEET_SB_bRKT0_RKSt17integral_constantIiLi53EEE1P_0, symObjAddr: 0x5338, symBinAddr: 0x10000C0B0, symSize: 0x0 }
  - { offset: 0x30C41, size: 0x8, addend: 0x0, symName: __ZZN5boost4math6detail7erf_impIeNS0_8policies6policyINS3_13promote_floatILb0EEENS3_14promote_doubleILb0EEENS3_14default_policyES9_S9_S9_S9_S9_S9_S9_S9_S9_S9_EEEET_SB_bRKT0_RKSt17integral_constantIiLi53EEE1Q_0, symObjAddr: 0x5368, symBinAddr: 0x10000C0E0, symSize: 0x0 }
  - { offset: 0x30C8B, size: 0x8, addend: 0x0, symName: __ZZN5boost4math6detail7erf_impIeNS0_8policies6policyINS3_13promote_floatILb0EEENS3_14promote_doubleILb0EEENS3_14default_policyES9_S9_S9_S9_S9_S9_S9_S9_S9_S9_EEEET_SB_bRKT0_RKSt17integral_constantIiLi53EEE1P_1, symObjAddr: 0x53A0, symBinAddr: 0x10000C118, symSize: 0x0 }
  - { offset: 0x30CA7, size: 0x8, addend: 0x0, symName: __ZZN5boost4math6detail7erf_impIeNS0_8policies6policyINS3_13promote_floatILb0EEENS3_14promote_doubleILb0EEENS3_14default_policyES9_S9_S9_S9_S9_S9_S9_S9_S9_S9_EEEET_SB_bRKT0_RKSt17integral_constantIiLi53EEE1Q_1, symObjAddr: 0x53D0, symBinAddr: 0x10000C148, symSize: 0x0 }
  - { offset: 0x30D4B, size: 0x8, addend: 0x0, symName: __ZZN5boost4math6detail7erf_impIeNS0_8policies6policyINS3_13promote_floatILb0EEENS3_14promote_doubleILb0EEENS3_14default_policyES9_S9_S9_S9_S9_S9_S9_S9_S9_S9_EEEET_SB_bRKT0_RKSt17integral_constantIiLi53EEE1P_2, symObjAddr: 0x5400, symBinAddr: 0x10000C178, symSize: 0x0 }
  - { offset: 0x30D67, size: 0x8, addend: 0x0, symName: __ZZN5boost4math6detail7erf_impIeNS0_8policies6policyINS3_13promote_floatILb0EEENS3_14promote_doubleILb0EEENS3_14default_policyES9_S9_S9_S9_S9_S9_S9_S9_S9_S9_EEEET_SB_bRKT0_RKSt17integral_constantIiLi53EEE1Q_2, symObjAddr: 0x5430, symBinAddr: 0x10000C1A8, symSize: 0x0 }
  - { offset: 0x30E09, size: 0x8, addend: 0x0, symName: __ZZN5boost4math6detail7erf_impIeNS0_8policies6policyINS3_13promote_floatILb0EEENS3_14promote_doubleILb0EEENS3_14default_policyES9_S9_S9_S9_S9_S9_S9_S9_S9_S9_EEEET_SB_bRKT0_RKSt17integral_constantIiLi53EEE1P_3, symObjAddr: 0x5460, symBinAddr: 0x10000C1D8, symSize: 0x0 }
  - { offset: 0x30E25, size: 0x8, addend: 0x0, symName: __ZZN5boost4math6detail7erf_impIeNS0_8policies6policyINS3_13promote_floatILb0EEENS3_14promote_doubleILb0EEENS3_14default_policyES9_S9_S9_S9_S9_S9_S9_S9_S9_S9_EEEET_SB_bRKT0_RKSt17integral_constantIiLi53EEE1Q_3, symObjAddr: 0x5498, symBinAddr: 0x10000C210, symSize: 0x0 }
  - { offset: 0x30E8B, size: 0x8, addend: 0x0, symName: __ZN5boost4math9constants8root_twoIdNS0_8policies6policyINS3_14default_policyES5_S5_S5_S5_S5_S5_S5_S5_S5_S5_S5_S5_EEEENS1_6detail15constant_returnIT_T0_E4typeEv, symObjAddr: 0x2650, symBinAddr: 0x100005C8C, symSize: 0x20 }
  - { offset: 0x30EB6, size: 0x8, addend: 0x0, symName: __ZN5boost4math6detail10isinf_implIdEEbT_RKNS1_10native_tagE, symObjAddr: 0x2630, symBinAddr: 0x100005C6C, symSize: 0x20 }
  - { offset: 0x30EF8, size: 0x8, addend: 0x0, symName: __ZN5boost4math5isnanIeEEbT_, symObjAddr: 0x2594, symBinAddr: 0x100005C4C, symSize: 0x20 }
  - { offset: 0x30F2B, size: 0x8, addend: 0x0, symName: __ZN5boost4math4erfcIdNS0_8policies6policyINS2_14default_policyES4_S4_S4_S4_S4_S4_S4_S4_S4_S4_S4_S4_EEEENS0_5tools12promote_argsIJT_EE4typeES8_RKT0_, symObjAddr: 0x1BE4, symBinAddr: 0x100005B0C, symSize: 0x140 }
  - { offset: 0x3106D, size: 0x8, addend: 0x0, symName: __ZN5boost4math9constants8root_twoIdEENS1_6detail15constant_returnIT_NS0_8policies6policyINS6_14default_policyES8_S8_S8_S8_S8_S8_S8_S8_S8_S8_S8_S8_EEE4typeEv, symObjAddr: 0x1BC8, symBinAddr: 0x100005AF0, symSize: 0x1C }
  - { offset: 0x3108F, size: 0x8, addend: 0x0, symName: __ZN5boost4math6detail7check_xIdNS0_8policies6policyINS3_14default_policyES5_S5_S5_S5_S5_S5_S5_S5_S5_S5_S5_S5_EEEEbPKcT_PS9_RKT0_, symObjAddr: 0x1B54, symBinAddr: 0x100005A7C, symSize: 0x74 }
  - { offset: 0x310FA, size: 0x8, addend: 0x0, symName: __ZN5boost4math5isinfIdEEbT_, symObjAddr: 0x1B34, symBinAddr: 0x100005A5C, symSize: 0x20 }
  - { offset: 0x3113E, size: 0x8, addend: 0x0, symName: __ZNK5boost4math19normal_distributionIdNS0_8policies6policyINS2_14default_policyES4_S4_S4_S4_S4_S4_S4_S4_S4_S4_S4_S4_EEE4meanEv, symObjAddr: 0x1B18, symBinAddr: 0x100005A40, symSize: 0x1C }
  - { offset: 0x31168, size: 0x8, addend: 0x0, symName: __ZNK5boost4math19normal_distributionIdNS0_8policies6policyINS2_14default_policyES4_S4_S4_S4_S4_S4_S4_S4_S4_S4_S4_S4_EEE18standard_deviationEv, symObjAddr: 0x1AFC, symBinAddr: 0x100005A24, symSize: 0x1C }
  - { offset: 0x31194, size: 0x8, addend: 0x0, symName: __ZN5boost4math3pdfIdNS0_8policies6policyINS2_14default_policyES4_S4_S4_S4_S4_S4_S4_S4_S4_S4_S4_S4_EEEET_RKNS0_19normal_distributionIS6_T0_EERKS6_, symObjAddr: 0x1170, symBinAddr: 0x100005870, symSize: 0x1B4 }
  - { offset: 0x31231, size: 0x8, addend: 0x0, symName: __ZN5boost4math3cdfIdNS0_8policies6policyINS2_14default_policyES4_S4_S4_S4_S4_S4_S4_S4_S4_S4_S4_S4_EEEET_RKNS0_19normal_distributionIS6_T0_EERKS6_, symObjAddr: 0xFCC, symBinAddr: 0x1000056CC, symSize: 0x1A4 }
  - { offset: 0x3130D, size: 0x8, addend: 0x0, symName: __ZN4yvan4util1nEd, symObjAddr: 0x94C, symBinAddr: 0x1000055FC, symSize: 0xD0 }
  - { offset: 0x3133E, size: 0x8, addend: 0x0, symName: __ZZN4yvan4util1nEdE11normal_dist, symObjAddr: 0x8DD98, symBinAddr: 0x100018018, symSize: 0x0 }
  - { offset: 0x3134D, size: 0x8, addend: 0x0, symName: __ZN4yvan4util1NEd, symObjAddr: 0x87C, symBinAddr: 0x10000552C, symSize: 0xD0 }
  - { offset: 0x3137E, size: 0x8, addend: 0x0, symName: __ZZN4yvan4util1NEdE11normal_dist, symObjAddr: 0x8DD80, symBinAddr: 0x100018000, symSize: 0x0 }
  - { offset: 0x3138D, size: 0x8, addend: 0x0, symName: __ZN5boost4math9constants6detail11constant_piIdE3getERKSt17integral_constantIiLi2EE, symObjAddr: 0x860, symBinAddr: 0x100005510, symSize: 0x1C }
  - { offset: 0x313AF, size: 0x8, addend: 0x0, symName: __ZN5boost4math9constants2piIdNS0_8policies6policyINS3_14default_policyES5_S5_S5_S5_S5_S5_S5_S5_S5_S5_S5_S5_EEEENS1_6detail15constant_returnIT_T0_E4typeEv, symObjAddr: 0x840, symBinAddr: 0x1000054F0, symSize: 0x20 }
  - { offset: 0x313DA, size: 0x8, addend: 0x0, symName: __ZN5boost4math9constants2piIdEENS1_6detail15constant_returnIT_NS0_8policies6policyINS6_14default_policyES8_S8_S8_S8_S8_S8_S8_S8_S8_S8_S8_S8_EEE4typeEv, symObjAddr: 0x824, symBinAddr: 0x1000054D4, symSize: 0x1C }
  - { offset: 0x313FC, size: 0x8, addend: 0x0, symName: __ZN5boost4math8policies6detail7name_ofIeEEPKcv, symObjAddr: 0x818, symBinAddr: 0x1000054C8, symSize: 0xC }
  - { offset: 0x31460, size: 0x8, addend: 0x0, symName: __ZSt5isnane, symObjAddr: 0x1AC, symBinAddr: 0x100005498, symSize: 0x30 }
  - { offset: 0x3148A, size: 0x8, addend: 0x0, symName: __ZSt5isinfd, symObjAddr: 0x16C, symBinAddr: 0x100005458, symSize: 0x40 }
  - { offset: 0x314B4, size: 0x8, addend: 0x0, symName: __ZSt5ldexpei, symObjAddr: 0x100, symBinAddr: 0x10000542C, symSize: 0x2C }
  - { offset: 0x314F5, size: 0x8, addend: 0x0, symName: __ZSt5frexpePi, symObjAddr: 0xD4, symBinAddr: 0x100005400, symSize: 0x2C }
  - { offset: 0x31530, size: 0x8, addend: 0x0, symName: __ZSt5floore, symObjAddr: 0xB8, symBinAddr: 0x1000053E4, symSize: 0x1C }
  - { offset: 0x3155A, size: 0x8, addend: 0x0, symName: __ZSt4fabse, symObjAddr: 0x9C, symBinAddr: 0x1000053C8, symSize: 0x1C }
  - { offset: 0x31583, size: 0x8, addend: 0x0, symName: __ZSt3expe, symObjAddr: 0x78, symBinAddr: 0x1000053A4, symSize: 0x24 }
  - { offset: 0x315AC, size: 0x8, addend: 0x0, symName: __ZNSt14numeric_limitsIeE9quiet_NaNEv, symObjAddr: 0x68, symBinAddr: 0x100005394, symSize: 0x10 }
  - { offset: 0x315C4, size: 0x8, addend: 0x0, symName: __ZNSt14numeric_limitsIdE8infinityEv, symObjAddr: 0x48, symBinAddr: 0x100005384, symSize: 0x10 }
  - { offset: 0x315DC, size: 0x8, addend: 0x0, symName: __ZNSt14numeric_limitsIdE3maxEv, symObjAddr: 0x38, symBinAddr: 0x100005374, symSize: 0x10 }
  - { offset: 0x350B4, size: 0x8, addend: 0x0, symName: __ZSt12construct_atIdJRKdEQaant20is_unbounded_array_vIT_ErqXgsnwcvPvLi0E_S2_pispcl7declvalIT0_EEEEEPS2_S5_DpOS4_, symObjAddr: 0x94C, symBinAddr: 0x1000073A4, symSize: 0x70 }
  - { offset: 0x3515F, size: 0x8, addend: 0x0, symName: __ZNSt6vectorIdSaIdEE17_M_realloc_appendIJRKdEEEvDpOT_, symObjAddr: 0x740, symBinAddr: 0x1000071F4, symSize: 0x1B0 }
  - { offset: 0x35410, size: 0x8, addend: 0x0, symName: __ZNSt6vectorIdSaIdEE9push_backERKd, symObjAddr: 0x39C, symBinAddr: 0x100007164, symSize: 0x90 }
  - { offset: 0x354D3, size: 0x8, addend: 0x0, symName: __ZN4yvan4util11mesh_vectorEddd, symObjAddr: 0x178, symBinAddr: 0x100006FEC, symSize: 0x178 }
  - { offset: 0x3A738, size: 0x8, addend: 0x0, symName: __ZSt12construct_atIN4yvan6option12OptionParamsEJS2_EQaant20is_unbounded_array_vIT_ErqXgsnwcvPvLi0E_S3_pispcl7declvalIT0_EEEEEPS3_S6_DpOS5_, symObjAddr: 0x1640, symBinAddr: 0x100008634, symSize: 0x8C }
  - { offset: 0x3A88E, size: 0x8, addend: 0x0, symName: __ZSt19__relocate_object_aIN4yvan6option12OptionParamsES2_SaIS2_EEvPT_PT0_RT1_, symObjAddr: 0x1590, symBinAddr: 0x1000085B4, symSize: 0x80 }
  - { offset: 0x3A9CB, size: 0x8, addend: 0x0, symName: __ZNSt15__new_allocatorIN4yvan6option12OptionParamsEE8allocateEmPKv, symObjAddr: 0x14F8, symBinAddr: 0x10000851C, symSize: 0x98 }
  - { offset: 0x3AA41, size: 0x8, addend: 0x0, symName: __ZNSt15__new_allocatorIN4yvan6option12OptionParamsEE10deallocateEPS2_m, symObjAddr: 0x14BC, symBinAddr: 0x1000084E0, symSize: 0x3C }
  - { offset: 0x3AA87, size: 0x8, addend: 0x0, symName: __ZSt14__relocate_a_1IPN4yvan6option12OptionParamsES3_SaIS2_EET0_T_S6_S5_RT1_, symObjAddr: 0x1444, symBinAddr: 0x100008468, symSize: 0x78 }
  - { offset: 0x3ABB0, size: 0x8, addend: 0x0, symName: __ZSt10destroy_atIN4yvan6option12OptionParamsEEvPT_, symObjAddr: 0x141C, symBinAddr: 0x100008454, symSize: 0x14 }
  - { offset: 0x3AC30, size: 0x8, addend: 0x0, symName: __ZSt12__relocate_aIPN4yvan6option12OptionParamsES3_SaIS2_EET0_T_S6_S5_RT1_, symObjAddr: 0x13D0, symBinAddr: 0x100008408, symSize: 0x4C }
  - { offset: 0x3ADB0, size: 0x8, addend: 0x0, symName: __ZNSt6vectorIN4yvan6option12OptionParamsESaIS2_EE12_Guard_allocD1Ev, symObjAddr: 0x1240, symBinAddr: 0x1000083BC, symSize: 0x4C }
  - { offset: 0x3AE1A, size: 0x8, addend: 0x0, symName: __ZNSt6vectorIN4yvan6option12OptionParamsESaIS2_EE12_Guard_allocC1EPS2_mRSt12_Vector_baseIS2_S3_E, symObjAddr: 0x11FC, symBinAddr: 0x100008378, symSize: 0x44 }
  - { offset: 0x3AE6D, size: 0x8, addend: 0x0, symName: __ZSt12construct_atIN4yvan6option12OptionParamsEJRKS2_EQaant20is_unbounded_array_vIT_ErqXgsnwcvPvLi0E_S5_pispcl7declvalIT0_EEEEEPS5_S8_DpOS7_, symObjAddr: 0x1170, symBinAddr: 0x1000082EC, symSize: 0x8C }
  - { offset: 0x3AF14, size: 0x8, addend: 0x0, symName: __ZSt8_DestroyIPN4yvan6option12OptionParamsEEvT_S4_, symObjAddr: 0x1114, symBinAddr: 0x100008290, symSize: 0x5C }
  - { offset: 0x3AFC4, size: 0x8, addend: 0x0, symName: __ZNSt6vectorIN4yvan6option12OptionParamsESaIS2_EE11_S_relocateEPS2_S5_S5_RS3_, symObjAddr: 0x10E0, symBinAddr: 0x10000825C, symSize: 0x34 }
  - { offset: 0x3B025, size: 0x8, addend: 0x0, symName: __ZNSt12_Vector_baseIN4yvan6option12OptionParamsESaIS2_EE11_M_allocateEm, symObjAddr: 0x1008, symBinAddr: 0x100008184, symSize: 0xD8 }
  - { offset: 0x3B0D3, size: 0x8, addend: 0x0, symName: __ZNKSt6vectorIN4yvan6option12OptionParamsESaIS2_EE8capacityEv, symObjAddr: 0xFB4, symBinAddr: 0x100008130, symSize: 0x54 }
  - { offset: 0x3B148, size: 0x8, addend: 0x0, symName: __ZNKSt6vectorIN4yvan6option12OptionParamsESaIS2_EE5emptyEv, symObjAddr: 0xED8, symBinAddr: 0x1000080D8, symSize: 0x58 }
  - { offset: 0x3B1E1, size: 0x8, addend: 0x0, symName: __ZNSt6vectorIN4yvan6option12OptionParamsESaIS2_EE17_M_realloc_appendIJRKS2_EEEvDpOT_, symObjAddr: 0xCE0, symBinAddr: 0x100007EE0, symSize: 0x1F8 }
  - { offset: 0x3B432, size: 0x8, addend: 0x0, symName: __ZNSt6vectorIN4yvan6option12OptionParamsESaIS2_EE5beginEv, symObjAddr: 0xCB4, symBinAddr: 0x100007EB4, symSize: 0x2C }
  - { offset: 0x3B486, size: 0x8, addend: 0x0, symName: __ZNSt6vectorIN4yvan6option12OptionParamsESaIS2_EE3endEv, symObjAddr: 0xC84, symBinAddr: 0x100007E84, symSize: 0x30 }
  - { offset: 0x3B512, size: 0x8, addend: 0x0, symName: __ZNSt6vectorIN4yvan6option12OptionParamsESaIS2_EE11_S_max_sizeERKS3_, symObjAddr: 0xC08, symBinAddr: 0x100007E40, symSize: 0x44 }
  - { offset: 0x3B562, size: 0x8, addend: 0x0, symName: __ZNKSt12_Vector_baseIN4yvan6option12OptionParamsESaIS2_EE19_M_get_Tp_allocatorEv, symObjAddr: 0xBF4, symBinAddr: 0x100007E2C, symSize: 0x14 }
  - { offset: 0x3B58C, size: 0x8, addend: 0x0, symName: __ZNKSt6vectorIN4yvan6option12OptionParamsESaIS2_EE8max_sizeEv, symObjAddr: 0xBD4, symBinAddr: 0x100007E0C, symSize: 0x20 }
  - { offset: 0x3B5B6, size: 0x8, addend: 0x0, symName: __ZNKSt6vectorIN4yvan6option12OptionParamsESaIS2_EE12_M_check_lenEmPKc, symObjAddr: 0xB04, symBinAddr: 0x100007D3C, symSize: 0xD0 }
  - { offset: 0x3B696, size: 0x8, addend: 0x0, symName: __ZNSt12_Vector_baseIN4yvan6option12OptionParamsESaIS2_EE19_M_get_Tp_allocatorEv, symObjAddr: 0xAB8, symBinAddr: 0x100007D28, symSize: 0x14 }
  - { offset: 0x3B6C0, size: 0x8, addend: 0x0, symName: __ZNSt12_Vector_baseIN4yvan6option12OptionParamsESaIS2_EE13_M_deallocateEPS2_m, symObjAddr: 0xA2C, symBinAddr: 0x100007C9C, symSize: 0x8C }
  - { offset: 0x3B792, size: 0x8, addend: 0x0, symName: __ZNSt6vectorIN4yvan6option12OptionParamsESaIS2_EE7reserveEm, symObjAddr: 0x83C, symBinAddr: 0x100007B30, symSize: 0x16C }
  - { offset: 0x3B7FF, size: 0x8, addend: 0x0, symName: __ZNSt6vectorIN4yvan6option12OptionParamsESaIS2_EE4backEv, symObjAddr: 0x6A4, symBinAddr: 0x100007A88, symSize: 0xA8 }
  - { offset: 0x3B8B6, size: 0x8, addend: 0x0, symName: __ZNSt6vectorIN4yvan6option12OptionParamsESaIS2_EE9push_backERKS2_, symObjAddr: 0x614, symBinAddr: 0x1000079F8, symSize: 0x90 }
  - { offset: 0x3B965, size: 0x8, addend: 0x0, symName: __ZNSt6vectorIN4yvan6option12OptionParamsESaIS2_EED1Ev, symObjAddr: 0x5B8, symBinAddr: 0x10000799C, symSize: 0x5C }
  - { offset: 0x3B9DB, size: 0x8, addend: 0x0, symName: __ZNSt12_Vector_baseIN4yvan6option12OptionParamsESaIS2_EED2Ev, symObjAddr: 0x554, symBinAddr: 0x100007938, symSize: 0x64 }
  - { offset: 0x3BA1F, size: 0x8, addend: 0x0, symName: __ZN4yvan4util8sweep_2dERKNS_6option12OptionParamsEMS2_ddddS5_ddd, symObjAddr: 0x274, symBinAddr: 0x100007658, symSize: 0x2E0 }
  - { offset: 0x3BB8C, size: 0x8, addend: 0x0, symName: __ZN4yvan4util6Grid2DINS_6option12OptionParamsEED1Ev, symObjAddr: 0x254, symBinAddr: 0x100007638, symSize: 0x20 }
  - { offset: 0x3BBAE, size: 0x8, addend: 0x0, symName: __ZN4yvan4util8sweep_1dERKNS_6option12OptionParamsEMS2_dddd, symObjAddr: 0x50, symBinAddr: 0x100007434, symSize: 0x204 }
  - { offset: 0x3BCB6, size: 0x8, addend: 0x0, symName: __ZNSt12_Vector_baseIN4yvan6option12OptionParamsESaIS2_EE12_Vector_implD1Ev, symObjAddr: 0x30, symBinAddr: 0x100007414, symSize: 0x20 }
  - { offset: 0x3BD16, size: 0x8, addend: 0x0, symName: __ZNK4yvan6option6Option10get_paramsEv, symObjAddr: 0x0, symBinAddr: 0x1000086C0, symSize: 0x40 }
  - { offset: 0x3E333, size: 0x8, addend: 0x0, symName: __ZN4yvan4util12check_parityEddRKNS_6option14EuropeanOptionEd, symObjAddr: 0x2EC, symBinAddr: 0x1000089AC, symSize: 0x44 }
  - { offset: 0x3E3A6, size: 0x8, addend: 0x0, symName: __ZN4yvan4util12check_parityEddRKNS_6option12OptionParamsEd, symObjAddr: 0x258, symBinAddr: 0x100008918, symSize: 0x94 }
  - { offset: 0x3E42F, size: 0x8, addend: 0x0, symName: __ZN4yvan4util13call_from_putEdRKNS_6option14EuropeanOptionE, symObjAddr: 0x21C, symBinAddr: 0x1000088DC, symSize: 0x3C }
  - { offset: 0x3E47A, size: 0x8, addend: 0x0, symName: __ZN4yvan4util13call_from_putEdRKNS_6option12OptionParamsE, symObjAddr: 0x14C, symBinAddr: 0x10000880C, symSize: 0xD0 }
  - { offset: 0x3E4D3, size: 0x8, addend: 0x0, symName: __ZN4yvan4util13put_from_callEdRKNS_6option14EuropeanOptionE, symObjAddr: 0x110, symBinAddr: 0x1000087D0, symSize: 0x3C }
  - { offset: 0x3E51E, size: 0x8, addend: 0x0, symName: __ZN4yvan4util13put_from_callEdRKNS_6option12OptionParamsE, symObjAddr: 0x40, symBinAddr: 0x100008700, symSize: 0xD0 }
  - { offset: 0x3E586, size: 0x8, addend: 0x0, symName: __ZNK4yvan6option6Option10get_paramsEv, symObjAddr: 0x0, symBinAddr: 0x1000086C0, symSize: 0x40 }
  - { offset: 0x45279, size: 0x8, addend: 0x0, symName: __ZStL8__ioinit, symObjAddr: 0x3A053, symBinAddr: 0x100018030, symSize: 0x0 }
  - { offset: 0x45773, size: 0x8, addend: 0x0, symName: __GLOBAL__sub_I_test_02.cpp, symObjAddr: 0x2B34, symBinAddr: 0x100009180, symSize: 0x14 }
  - { offset: 0x4578B, size: 0x8, addend: 0x0, symName: __Z41__static_initialization_and_destruction_0v, symObjAddr: 0x2AF8, symBinAddr: 0x100009144, symSize: 0x3C }
  - { offset: 0x457AD, size: 0x8, addend: 0x0, symName: __ZNSt6vectorIN4yvan6option12OptionParamsESaIS2_EEixEm, symObjAddr: 0xF3C, symBinAddr: 0x1000090B4, symSize: 0x90 }
  - { offset: 0x45805, size: 0x8, addend: 0x0, symName: __ZN4yvan4util6Grid2DINS_6option12OptionParamsEEclEmm, symObjAddr: 0xEF8, symBinAddr: 0x100009070, symSize: 0x44 }
  - { offset: 0x45868, size: 0x8, addend: 0x0, symName: _main, symObjAddr: 0x494, symBinAddr: 0x100008B40, symSize: 0x530 }
  - { offset: 0x45B23, size: 0x8, addend: 0x0, symName: __ZSt5fixedRSt8ios_base, symObjAddr: 0x174, symBinAddr: 0x100008B18, symSize: 0x28 }
  - { offset: 0x45B5C, size: 0x8, addend: 0x0, symName: __ZNSt8ios_base4setfESt13_Ios_FmtflagsS0_, symObjAddr: 0x114, symBinAddr: 0x100008AB8, symSize: 0x60 }
  - { offset: 0x45BC1, size: 0x8, addend: 0x0, symName: __ZStaNRSt13_Ios_FmtflagsS_, symObjAddr: 0xDC, symBinAddr: 0x100008A80, symSize: 0x38 }
  - { offset: 0x45BFA, size: 0x8, addend: 0x0, symName: __ZStoRRSt13_Ios_FmtflagsS_, symObjAddr: 0xA4, symBinAddr: 0x100008A48, symSize: 0x38 }
  - { offset: 0x45C33, size: 0x8, addend: 0x0, symName: __ZStcoSt13_Ios_Fmtflags, symObjAddr: 0x8C, symBinAddr: 0x100008A30, symSize: 0x18 }
  - { offset: 0x45C5C, size: 0x8, addend: 0x0, symName: __ZStorSt13_Ios_FmtflagsS_, symObjAddr: 0x6C, symBinAddr: 0x100008A10, symSize: 0x20 }
  - { offset: 0x45C95, size: 0x8, addend: 0x0, symName: __ZStanSt13_Ios_FmtflagsS_, symObjAddr: 0x4C, symBinAddr: 0x1000089F0, symSize: 0x20 }
...
