---
triple:          'arm64-apple-darwin'
binary-path:     '/Users/yvan/Desktop/SELF/QUANTFIN/BaruchCertif/Final_Project/01_Exact_Pricing_Methods/tests/main'
relocations:
  - { offset: 0x19, size: 0x8, addend: 0x0, symName: __ZSt21is_constant_evaluatedv, symObjAddr: 0x0, symBinAddr: 0x1000007E0, symSize: 0x8 }
  - { offset: 0x7487, size: 0x8, addend: 0x0, symName: __ZN4yvan6engine8BSEngineD0Ev, symObjAddr: 0x1BC0, symBinAddr: 0x1000023A0, symSize: 0x28 }
  - { offset: 0x74AF, size: 0x8, addend: 0x0, symName: __ZN4yvan6engine8BSEngineD1Ev, symObjAddr: 0x1B90, symBinAddr: 0x100002370, symSize: 0x30 }
  - { offset: 0x74EB, size: 0x8, addend: 0x0, symName: __ZN4yvan6engine7IPricerD2Ev, symObjAddr: 0x1B68, symBinAddr: 0x100002348, symSize: 0x28 }
  - { offset: 0x750B, size: 0x8, addend: 0x0, symName: __ZSt9__fill_a1IPddEvT_S1_RKT0_, symObjAddr: 0x1B08, symBinAddr: 0x1000022E8, symSize: 0x60 }
  - { offset: 0x7635, size: 0x8, addend: 0x0, symName: __ZSt12construct_atIdJEQaant20is_unbounded_array_vIT_ErqXgsnwcvPvLi0E_S0_pispcl7declvalIT0_EEEEEPS0_S3_DpOS2_, symObjAddr: 0x1AAC, symBinAddr: 0x10000228C, symSize: 0x5C }
  - { offset: 0x76CE, size: 0x8, addend: 0x0, symName: __ZNSt19_UninitDestroyGuardIPdvE7releaseEv, symObjAddr: 0x1A90, symBinAddr: 0x100002270, symSize: 0x1C }
  - { offset: 0x76F2, size: 0x8, addend: 0x0, symName: __ZSt10_ConstructIdJEEvPT_DpOT0_, symObjAddr: 0x1A2C, symBinAddr: 0x10000220C, symSize: 0x64 }
  - { offset: 0x7763, size: 0x8, addend: 0x0, symName: __ZNSt19_UninitDestroyGuardIPdvED1Ev, symObjAddr: 0x19D4, symBinAddr: 0x1000021B4, symSize: 0x58 }
  - { offset: 0x77AD, size: 0x8, addend: 0x0, symName: __ZNSt27__uninitialized_default_n_1ILb1EE18__uninit_default_nIPdmEET_S3_T0_, symObjAddr: 0x18E0, symBinAddr: 0x1000020C0, symSize: 0xF4 }
  - { offset: 0x7904, size: 0x8, addend: 0x0, symName: __ZNSt27__uninitialized_default_n_1ILb0EE18__uninit_default_nIPdmEET_S3_T0_, symObjAddr: 0x1864, symBinAddr: 0x100002044, symSize: 0x7C }
  - { offset: 0x79A8, size: 0x8, addend: 0x0, symName: __ZNSt19_UninitDestroyGuardIPdvEC1ERS0_, symObjAddr: 0x1830, symBinAddr: 0x100002010, symSize: 0x34 }
  - { offset: 0x7A05, size: 0x8, addend: 0x0, symName: __ZSt19__relocate_object_aIddSaIdEEvPT_PT0_RT1_, symObjAddr: 0x17B0, symBinAddr: 0x100001F90, symSize: 0x80 }
  - { offset: 0x7B69, size: 0x8, addend: 0x0, symName: __ZSt25__uninitialized_default_nIPdmET_S1_T0_, symObjAddr: 0x1760, symBinAddr: 0x100001F40, symSize: 0x50 }
  - { offset: 0x7C00, size: 0x8, addend: 0x0, symName: __ZNKSt6vectorIdSaIdEE3endEv, symObjAddr: 0x1730, symBinAddr: 0x100001F10, symSize: 0x30 }
  - { offset: 0x7C4F, size: 0x8, addend: 0x0, symName: __ZNKSt6vectorIdSaIdEE5beginEv, symObjAddr: 0x1704, symBinAddr: 0x100001EE4, symSize: 0x2C }
  - { offset: 0x7CAE, size: 0x8, addend: 0x0, symName: __ZSt14__relocate_a_1IPdN9__gnu_cxx17__normal_iteratorIS0_vEESaIdEET0_T_S6_S5_RT1_, symObjAddr: 0x1688, symBinAddr: 0x100001E68, symSize: 0x7C }
  - { offset: 0x7DB7, size: 0x8, addend: 0x0, symName: __ZNSt15__new_allocatorIdE8allocateEmPKv, symObjAddr: 0x160C, symBinAddr: 0x100001DEC, symSize: 0x7C }
  - { offset: 0x7E28, size: 0x8, addend: 0x0, symName: __ZNSt15__new_allocatorIdE10deallocateEPdm, symObjAddr: 0x15DC, symBinAddr: 0x100001DBC, symSize: 0x30 }
  - { offset: 0x7E6A, size: 0x8, addend: 0x0, symName: __ZSt27__uninitialized_default_n_aIPdmdET_S1_T0_RSaIT1_E, symObjAddr: 0x15B4, symBinAddr: 0x100001D94, symSize: 0x28 }
  - { offset: 0x7EC9, size: 0x8, addend: 0x0, symName: __ZNSt12_Vector_baseIdSaIdEE17_M_create_storageEm, symObjAddr: 0x1554, symBinAddr: 0x100001D34, symSize: 0x60 }
  - { offset: 0x7F25, size: 0x8, addend: 0x0, symName: __ZNSt12_Vector_baseIdSaIdEE12_Vector_implC1ERKS0_, symObjAddr: 0x1508, symBinAddr: 0x100001CE8, symSize: 0x4C }
  - { offset: 0x7FDA, size: 0x8, addend: 0x0, symName: __ZNKSt6vectorIdSaIdEE5emptyEv, symObjAddr: 0x14B0, symBinAddr: 0x100001C90, symSize: 0x58 }
  - { offset: 0x809E, size: 0x8, addend: 0x0, symName: __ZNSt6vectorIdSaIdEE12_Guard_allocD1Ev, symObjAddr: 0x1464, symBinAddr: 0x100001C44, symSize: 0x4C }
  - { offset: 0x8101, size: 0x8, addend: 0x0, symName: __ZNSt6vectorIdSaIdEE12_Guard_allocC1EPdmRSt12_Vector_baseIdS0_E, symObjAddr: 0x1420, symBinAddr: 0x100001C00, symSize: 0x44 }
  - { offset: 0x8153, size: 0x8, addend: 0x0, symName: __ZSt12construct_atIdJdEQaant20is_unbounded_array_vIT_ErqXgsnwcvPvLi0E_S0_pispcl7declvalIT0_EEEEEPS0_S3_DpOS2_, symObjAddr: 0x13B0, symBinAddr: 0x100001B90, symSize: 0x70 }
  - { offset: 0x81D1, size: 0x8, addend: 0x0, symName: __ZSt14__relocate_a_1IddENSt9enable_ifIXsrSt24__is_bitwise_relocatableIT_vE5valueEPS2_E4typeES4_S4_S4_RSaIT0_E, symObjAddr: 0x1308, symBinAddr: 0x100001AE8, symSize: 0xA8 }
  - { offset: 0x830E, size: 0x8, addend: 0x0, symName: __ZSt10destroy_atIdEvPT_, symObjAddr: 0x12F4, symBinAddr: 0x100001AD4, symSize: 0x14 }
  - { offset: 0x838A, size: 0x8, addend: 0x0, symName: __ZNSt6vectorIdSaIdEE21_M_default_initializeEm, symObjAddr: 0x12A4, symBinAddr: 0x100001A84, symSize: 0x50 }
  - { offset: 0x83F4, size: 0x8, addend: 0x0, symName: __ZNSt12_Vector_baseIdSaIdEEC2EmRKS0_, symObjAddr: 0x1250, symBinAddr: 0x100001A30, symSize: 0x54 }
  - { offset: 0x8424, size: 0x8, addend: 0x0, symName: __ZNSt6vectorIdSaIdEE17_S_check_init_lenEmRKS0_, symObjAddr: 0x11DC, symBinAddr: 0x1000019BC, symSize: 0x74 }
  - { offset: 0x84E9, size: 0x8, addend: 0x0, symName: __ZNSt6vectorIdSaIdEE4backEv, symObjAddr: 0x1140, symBinAddr: 0x100001920, symSize: 0x9C }
  - { offset: 0x8596, size: 0x8, addend: 0x0, symName: __ZNSt6vectorIdSaIdEE17_M_realloc_appendIJdEEEvDpOT_, symObjAddr: 0xF90, symBinAddr: 0x100001770, symSize: 0x1B0 }
  - { offset: 0x87C4, size: 0x8, addend: 0x0, symName: __ZNSt6vectorIdSaIdEE5beginEv, symObjAddr: 0xF64, symBinAddr: 0x100001744, symSize: 0x2C }
  - { offset: 0x8813, size: 0x8, addend: 0x0, symName: __ZNSt6vectorIdSaIdEE3endEv, symObjAddr: 0xF34, symBinAddr: 0x100001714, symSize: 0x30 }
  - { offset: 0x889B, size: 0x8, addend: 0x0, symName: __ZNKSt6vectorIdSaIdEE12_M_check_lenEmPKc, symObjAddr: 0xE64, symBinAddr: 0x100001644, symSize: 0xD0 }
  - { offset: 0x88F5, size: 0x8, addend: 0x0, symName: __ZSt3maxImERKT_S2_S2_, symObjAddr: 0xE2C, symBinAddr: 0x10000160C, symSize: 0x38 }
  - { offset: 0x899D, size: 0x8, addend: 0x0, symName: __ZSt12__relocate_aIPdS0_SaIdEET0_T_S3_S2_RT1_, symObjAddr: 0xDE0, symBinAddr: 0x1000015C0, symSize: 0x4C }
  - { offset: 0x8A9B, size: 0x8, addend: 0x0, symName: __ZNKSt12_Vector_baseIdSaIdEE19_M_get_Tp_allocatorEv, symObjAddr: 0xDCC, symBinAddr: 0x1000015AC, symSize: 0x14 }
  - { offset: 0x8ABF, size: 0x8, addend: 0x0, symName: __ZNSt6vectorIdSaIdEE11_S_max_sizeERKS0_, symObjAddr: 0xD98, symBinAddr: 0x100001578, symSize: 0x34 }
  - { offset: 0x8B07, size: 0x8, addend: 0x0, symName: __ZSt8_DestroyIPdEvT_S1_, symObjAddr: 0xD3C, symBinAddr: 0x10000151C, symSize: 0x5C }
  - { offset: 0x8BAE, size: 0x8, addend: 0x0, symName: __ZSt3minImERKT_S2_S2_, symObjAddr: 0xD04, symBinAddr: 0x1000014E4, symSize: 0x38 }
  - { offset: 0x8BF1, size: 0x8, addend: 0x0, symName: __ZNKSt6vectorIN4yvan6option12OptionParamsESaIS2_EEixEm, symObjAddr: 0xC74, symBinAddr: 0x100001454, symSize: 0x90 }
  - { offset: 0x8C46, size: 0x8, addend: 0x0, symName: __ZNSt6vectorIdSaIdEEixEm, symObjAddr: 0xBF0, symBinAddr: 0x1000013D0, symSize: 0x84 }
  - { offset: 0x8CCB, size: 0x8, addend: 0x0, symName: __ZNSt6vectorIdSaIdEEC1EmRKS0_, symObjAddr: 0xB88, symBinAddr: 0x100001368, symSize: 0x68 }
  - { offset: 0x8D1F, size: 0x8, addend: 0x0, symName: __ZNSt6vectorIdSaIdEE12emplace_backIJdEEERdDpOT_, symObjAddr: 0xAE0, symBinAddr: 0x1000012C0, symSize: 0xA8 }
  - { offset: 0x8E3B, size: 0x8, addend: 0x0, symName: __ZNSt6vectorIdSaIdEE11_S_relocateEPdS2_S2_RS0_, symObjAddr: 0xAAC, symBinAddr: 0x10000128C, symSize: 0x34 }
  - { offset: 0x8E97, size: 0x8, addend: 0x0, symName: __ZNSt12_Vector_baseIdSaIdEE11_M_allocateEm, symObjAddr: 0x9E8, symBinAddr: 0x1000011C8, symSize: 0xC4 }
  - { offset: 0x8F3B, size: 0x8, addend: 0x0, symName: __ZNKSt6vectorIdSaIdEE8capacityEv, symObjAddr: 0x9A8, symBinAddr: 0x100001188, symSize: 0x40 }
  - { offset: 0x8F73, size: 0x8, addend: 0x0, symName: __ZNKSt6vectorIdSaIdEE8max_sizeEv, symObjAddr: 0x988, symBinAddr: 0x100001168, symSize: 0x20 }
  - { offset: 0x8FD3, size: 0x8, addend: 0x0, symName: __ZNSt12_Vector_baseIdSaIdEE19_M_get_Tp_allocatorEv, symObjAddr: 0x974, symBinAddr: 0x100001154, symSize: 0x14 }
  - { offset: 0x8FFB, size: 0x8, addend: 0x0, symName: __ZNSt12_Vector_baseIdSaIdEE13_M_deallocateEPdm, symObjAddr: 0x8E8, symBinAddr: 0x1000010C8, symSize: 0x8C }
  - { offset: 0x90C0, size: 0x8, addend: 0x0, symName: __ZNK4yvan4util6Grid2DINS_6option12OptionParamsEEclEmm, symObjAddr: 0x8A4, symBinAddr: 0x100001084, symSize: 0x44 }
  - { offset: 0x9106, size: 0x8, addend: 0x0, symName: __ZN4yvan4util6Grid2DIdEclEmm, symObjAddr: 0x860, symBinAddr: 0x100001040, symSize: 0x44 }
  - { offset: 0x917C, size: 0x8, addend: 0x0, symName: __ZN4yvan4util6Grid2DIdEC1Emm, symObjAddr: 0x7F0, symBinAddr: 0x100000FD0, symSize: 0x70 }
  - { offset: 0x9210, size: 0x8, addend: 0x0, symName: __ZNSt6vectorIdSaIdEE9push_backEOd, symObjAddr: 0x7BC, symBinAddr: 0x100000F9C, symSize: 0x34 }
  - { offset: 0x927E, size: 0x8, addend: 0x0, symName: __ZNKSt6vectorIN4yvan6option12OptionParamsESaIS2_EE3endEv, symObjAddr: 0x78C, symBinAddr: 0x100000F6C, symSize: 0x30 }
  - { offset: 0x92CD, size: 0x8, addend: 0x0, symName: __ZNKSt6vectorIN4yvan6option12OptionParamsESaIS2_EE5beginEv, symObjAddr: 0x760, symBinAddr: 0x100000F40, symSize: 0x2C }
  - { offset: 0x931C, size: 0x8, addend: 0x0, symName: __ZNSt6vectorIdSaIdEE7reserveEm, symObjAddr: 0x624, symBinAddr: 0x100000E04, symSize: 0x13C }
  - { offset: 0x9383, size: 0x8, addend: 0x0, symName: __ZNKSt6vectorIdSaIdEE4sizeEv, symObjAddr: 0x5E4, symBinAddr: 0x100000DC4, symSize: 0x40 }
  - { offset: 0x93BB, size: 0x8, addend: 0x0, symName: __ZNKSt6vectorIN4yvan6option12OptionParamsESaIS2_EE4sizeEv, symObjAddr: 0x590, symBinAddr: 0x100000D70, symSize: 0x54 }
  - { offset: 0x940B, size: 0x8, addend: 0x0, symName: __ZNSt6vectorIdSaIdEED1Ev, symObjAddr: 0x534, symBinAddr: 0x100000D14, symSize: 0x5C }
  - { offset: 0x9479, size: 0x8, addend: 0x0, symName: __ZNSt12_Vector_baseIdSaIdEED2Ev, symObjAddr: 0x4E4, symBinAddr: 0x100000CC4, symSize: 0x50 }
  - { offset: 0x94B1, size: 0x8, addend: 0x0, symName: __ZNK4yvan6engine8BSEngine5priceERKNS_6option12OptionParamsE, symObjAddr: 0x3C4, symBinAddr: 0x100000BA4, symSize: 0x120 }
  - { offset: 0x9542, size: 0x8, addend: 0x0, symName: __ZNK4yvan6engine8BSEngine2d2ERKNS_6option12OptionParamsE, symObjAddr: 0x36C, symBinAddr: 0x100000B4C, symSize: 0x58 }
  - { offset: 0x9579, size: 0x8, addend: 0x0, symName: __ZNK4yvan6engine8BSEngine2d1ERKNS_6option12OptionParamsE, symObjAddr: 0x2BC, symBinAddr: 0x100000A9C, symSize: 0xB0 }
  - { offset: 0x95CE, size: 0x8, addend: 0x0, symName: __ZNK4yvan6engine7IPricer5priceERKNS_4util6Grid2DINS_6option12OptionParamsEEE, symObjAddr: 0x1C4, symBinAddr: 0x1000009A4, symSize: 0xF8 }
  - { offset: 0x9672, size: 0x8, addend: 0x0, symName: __ZN4yvan4util6Grid2DIdED1Ev, symObjAddr: 0x1A4, symBinAddr: 0x100000984, symSize: 0x20 }
  - { offset: 0x9696, size: 0x8, addend: 0x0, symName: __ZNK4yvan6engine7IPricer5priceERKSt6vectorINS_6option12OptionParamsESaIS4_EE, symObjAddr: 0x98, symBinAddr: 0x100000878, symSize: 0x10C }
  - { offset: 0x9845, size: 0x8, addend: 0x0, symName: __ZNSt12_Vector_baseIdSaIdEE17_Vector_impl_dataC2Ev, symObjAddr: 0x6C, symBinAddr: 0x10000084C, symSize: 0x2C }
  - { offset: 0x98AD, size: 0x8, addend: 0x0, symName: __ZNSt12_Vector_baseIdSaIdEE12_Vector_implD1Ev, symObjAddr: 0x4C, symBinAddr: 0x10000082C, symSize: 0x20 }
  - { offset: 0x98EF, size: 0x8, addend: 0x0, symName: __ZSt17__size_to_integerm, symObjAddr: 0x38, symBinAddr: 0x100000818, symSize: 0x14 }
  - { offset: 0x991F, size: 0x8, addend: 0x0, symName: __ZdlPvS_, symObjAddr: 0x20, symBinAddr: 0x100000800, symSize: 0x18 }
  - { offset: 0x9953, size: 0x8, addend: 0x0, symName: __ZnwmPv, symObjAddr: 0x8, symBinAddr: 0x1000007E8, symSize: 0x18 }
  - { offset: 0x9983, size: 0x8, addend: 0x0, symName: __ZSt21is_constant_evaluatedv, symObjAddr: 0x0, symBinAddr: 0x1000007E0, symSize: 0x8 }
  - { offset: 0xE581, size: 0x8, addend: 0x0, symName: __ZN4yvan6engine14BSEngineGreeksD0Ev, symObjAddr: 0x1CC0, symBinAddr: 0x100002D28, symSize: 0x28 }
  - { offset: 0xE5A9, size: 0x8, addend: 0x0, symName: __ZN4yvan6engine14BSEngineGreeksD1Ev, symObjAddr: 0x1C90, symBinAddr: 0x100002CF8, symSize: 0x30 }
  - { offset: 0xE5E5, size: 0x8, addend: 0x0, symName: __ZN4yvan6engine7IGreeksD2Ev, symObjAddr: 0x1C68, symBinAddr: 0x100002CD0, symSize: 0x28 }
  - { offset: 0xE63B, size: 0x8, addend: 0x0, symName: __ZSt12construct_atIdJRKdEQaant20is_unbounded_array_vIT_ErqXgsnwcvPvLi0E_S2_pispcl7declvalIT0_EEEEEPS2_S5_DpOS4_, symObjAddr: 0x1320, symBinAddr: 0x100002C60, symSize: 0x70 }
  - { offset: 0xE6DF, size: 0x8, addend: 0x0, symName: __ZNSt6vectorIdSaIdEE17_M_realloc_appendIJRKdEEEvDpOT_, symObjAddr: 0xF4C, symBinAddr: 0x100002AB0, symSize: 0x1B0 }
  - { offset: 0xE96A, size: 0x8, addend: 0x0, symName: __ZNSt6vectorIdSaIdEE9push_backERKd, symObjAddr: 0x9E8, symBinAddr: 0x100002A20, symSize: 0x90 }
  - { offset: 0xEA0A, size: 0x8, addend: 0x0, symName: __ZNK4yvan6engine14BSEngineGreeks5gammaERKNS_6option12OptionParamsE, symObjAddr: 0x660, symBinAddr: 0x100002970, symSize: 0xB0 }
  - { offset: 0xEA6E, size: 0x8, addend: 0x0, symName: __ZNK4yvan6engine14BSEngineGreeks5deltaERKNS_6option12OptionParamsE, symObjAddr: 0x5C8, symBinAddr: 0x1000028D8, symSize: 0x98 }
  - { offset: 0xEAC3, size: 0x8, addend: 0x0, symName: __ZNK4yvan6engine14BSEngineGreeks2d2ERKNS_6option12OptionParamsE, symObjAddr: 0x570, symBinAddr: 0x100002880, symSize: 0x58 }
  - { offset: 0xEAFA, size: 0x8, addend: 0x0, symName: __ZNK4yvan6engine14BSEngineGreeks2d1ERKNS_6option12OptionParamsE, symObjAddr: 0x4C0, symBinAddr: 0x1000027D0, symSize: 0xB0 }
  - { offset: 0xEB4F, size: 0x8, addend: 0x0, symName: __ZN4yvan6engine7IGreeks5gammaERKNS_4util6Grid2DINS_6option12OptionParamsEEE, symObjAddr: 0x3C8, symBinAddr: 0x1000026D8, symSize: 0xF8 }
  - { offset: 0xEBD7, size: 0x8, addend: 0x0, symName: __ZNK4yvan6engine7IGreeks5gammaERKSt6vectorINS_6option12OptionParamsESaIS4_EE, symObjAddr: 0x2BC, symBinAddr: 0x1000025CC, symSize: 0x10C }
  - { offset: 0xED2E, size: 0x8, addend: 0x0, symName: __ZN4yvan6engine7IGreeks5deltaERKNS_4util6Grid2DINS_6option12OptionParamsEEE, symObjAddr: 0x1C4, symBinAddr: 0x1000024D4, symSize: 0xF8 }
  - { offset: 0xEDB6, size: 0x8, addend: 0x0, symName: __ZNK4yvan6engine7IGreeks5deltaERKSt6vectorINS_6option12OptionParamsESaIS4_EE, symObjAddr: 0x98, symBinAddr: 0x1000023C8, symSize: 0x10C }
  - { offset: 0x13512, size: 0x8, addend: 0x0, symName: __ZN4yvan6engine21NumericalEngineGreeksD0Ev, symObjAddr: 0x1CC0, symBinAddr: 0x100002FD0, symSize: 0x28 }
  - { offset: 0x1353A, size: 0x8, addend: 0x0, symName: __ZN4yvan6engine21NumericalEngineGreeksD1Ev, symObjAddr: 0x1C90, symBinAddr: 0x100002FA0, symSize: 0x30 }
  - { offset: 0x1355E, size: 0x8, addend: 0x0, symName: __ZNK4yvan6engine21NumericalEngineGreeks5gammaERKNS_6option12OptionParamsE, symObjAddr: 0x5F0, symBinAddr: 0x100002E58, symSize: 0x148 }
  - { offset: 0x135E4, size: 0x8, addend: 0x0, symName: __ZNK4yvan6engine21NumericalEngineGreeks5deltaERKNS_6option12OptionParamsE, symObjAddr: 0x4E8, symBinAddr: 0x100002D50, symSize: 0x108 }
  - { offset: 0x17C08, size: 0x8, addend: 0x0, symName: __ZN4yvan6engine23PerpetualAmericanEngineD0Ev, symObjAddr: 0x1B30, symBinAddr: 0x1000031C0, symSize: 0x28 }
  - { offset: 0x17C30, size: 0x8, addend: 0x0, symName: __ZN4yvan6engine23PerpetualAmericanEngineD1Ev, symObjAddr: 0x1B00, symBinAddr: 0x100003190, symSize: 0x30 }
  - { offset: 0x17C5A, size: 0x8, addend: 0x0, symName: __ZNK4yvan6engine23PerpetualAmericanEngine5priceERKNS_6option12OptionParamsE, symObjAddr: 0x380, symBinAddr: 0x1000030BC, symSize: 0xD4 }
  - { offset: 0x17CCD, size: 0x8, addend: 0x0, symName: __ZNK4yvan6engine23PerpetualAmericanEngine2a2ERKNS_6option12OptionParamsE, symObjAddr: 0x2FC, symBinAddr: 0x100003038, symSize: 0x84 }
  - { offset: 0x17D31, size: 0x8, addend: 0x0, symName: __ZNK4yvan6engine23PerpetualAmericanEngine2a1ERKNS_6option12OptionParamsE, symObjAddr: 0x2BC, symBinAddr: 0x100002FF8, symSize: 0x40 }
  - { offset: 0x17D79, size: 0x8, addend: 0x0, symName: __ZNK4yvan6option14EuropeanOption5styleEv, symObjAddr: 0x0, symBinAddr: 0x1000031E8, symSize: 0x14 }
  - { offset: 0x1B1D1, size: 0x8, addend: 0x0, symName: __ZN4yvan6option14EuropeanOptionD0Ev, symObjAddr: 0x1E8, symBinAddr: 0x1000033D0, symSize: 0x28 }
  - { offset: 0x1B1F9, size: 0x8, addend: 0x0, symName: __ZN4yvan6option14EuropeanOptionD1Ev, symObjAddr: 0x1B4, symBinAddr: 0x10000339C, symSize: 0x34 }
  - { offset: 0x1B21F, size: 0x8, addend: 0x0, symName: __ZSt3maxIdERKT_S2_S2_, symObjAddr: 0x178, symBinAddr: 0x100003360, symSize: 0x3C }
  - { offset: 0x1B264, size: 0x8, addend: 0x0, symName: __ZNK4yvan6option14EuropeanOption6payoffEv, symObjAddr: 0x11C, symBinAddr: 0x100003304, symSize: 0x5C }
  - { offset: 0x1B2CE, size: 0x8, addend: 0x0, symName: __ZN4yvan6option14EuropeanOptionC1ERKNS0_12OptionParamsE, symObjAddr: 0xE0, symBinAddr: 0x1000032C8, symSize: 0x3C }
  - { offset: 0x1B2FE, size: 0x8, addend: 0x0, symName: __ZN4yvan6option14EuropeanOptionC2ERKNS0_12OptionParamsE, symObjAddr: 0xA4, symBinAddr: 0x10000328C, symSize: 0x3C }
  - { offset: 0x1B342, size: 0x8, addend: 0x0, symName: __ZN4yvan6option14EuropeanOptionC1Ev, symObjAddr: 0x70, symBinAddr: 0x100003258, symSize: 0x34 }
  - { offset: 0x1B36A, size: 0x8, addend: 0x0, symName: __ZN4yvan6option14EuropeanOptionC2Ev, symObjAddr: 0x3C, symBinAddr: 0x100003224, symSize: 0x34 }
  - { offset: 0x1B3A6, size: 0x8, addend: 0x0, symName: __ZN4yvan6option6OptionD2Ev, symObjAddr: 0x14, symBinAddr: 0x1000031FC, symSize: 0x28 }
  - { offset: 0x1B3CA, size: 0x8, addend: 0x0, symName: __ZNK4yvan6option14EuropeanOption5styleEv, symObjAddr: 0x0, symBinAddr: 0x1000031E8, symSize: 0x14 }
  - { offset: 0x1B403, size: 0x8, addend: 0x0, symName: __ZN4yvan6option6OptionC2Ev, symObjAddr: 0x0, symBinAddr: 0x1000033F8, symSize: 0x68 }
  - { offset: 0x1DDF5, size: 0x8, addend: 0x0, symName: __ZN4yvan6option6Option11switch_typeEv, symObjAddr: 0x390, symBinAddr: 0x100003788, symSize: 0x40 }
  - { offset: 0x1DE1D, size: 0x8, addend: 0x0, symName: __ZNK4yvan6option6Option15validate_paramsEv, symObjAddr: 0x198, symBinAddr: 0x100003590, symSize: 0x1F8 }
  - { offset: 0x1DE69, size: 0x8, addend: 0x0, symName: __ZN4yvan6option6OptionC1ERKNS0_12OptionParamsE, symObjAddr: 0x134, symBinAddr: 0x10000352C, symSize: 0x64 }
  - { offset: 0x1DE99, size: 0x8, addend: 0x0, symName: __ZN4yvan6option6OptionC2ERKNS0_12OptionParamsE, symObjAddr: 0xD0, symBinAddr: 0x1000034C8, symSize: 0x64 }
  - { offset: 0x1DEDD, size: 0x8, addend: 0x0, symName: __ZN4yvan6option6OptionC1Ev, symObjAddr: 0x68, symBinAddr: 0x100003460, symSize: 0x68 }
  - { offset: 0x1DF05, size: 0x8, addend: 0x0, symName: __ZN4yvan6option6OptionC2Ev, symObjAddr: 0x0, symBinAddr: 0x1000033F8, symSize: 0x68 }
  - { offset: 0x1DF3A, size: 0x8, addend: 0x0, symName: __ZNK4yvan6option23PerpetualAmericanOption5styleEv, symObjAddr: 0x0, symBinAddr: 0x1000037C8, symSize: 0x14 }
  - { offset: 0x20533, size: 0x8, addend: 0x0, symName: __ZN4yvan6option23PerpetualAmericanOptionD0Ev, symObjAddr: 0x150, symBinAddr: 0x1000038F0, symSize: 0x28 }
  - { offset: 0x2055B, size: 0x8, addend: 0x0, symName: __ZN4yvan6option23PerpetualAmericanOptionD1Ev, symObjAddr: 0x11C, symBinAddr: 0x1000038BC, symSize: 0x34 }
  - { offset: 0x205A3, size: 0x8, addend: 0x0, symName: __ZN4yvan6option23PerpetualAmericanOptionC1ERKNS0_12OptionParamsE, symObjAddr: 0xE0, symBinAddr: 0x100003880, symSize: 0x3C }
  - { offset: 0x205D3, size: 0x8, addend: 0x0, symName: __ZN4yvan6option23PerpetualAmericanOptionC2ERKNS0_12OptionParamsE, symObjAddr: 0xA4, symBinAddr: 0x100003844, symSize: 0x3C }
  - { offset: 0x20617, size: 0x8, addend: 0x0, symName: __ZN4yvan6option23PerpetualAmericanOptionC1Ev, symObjAddr: 0x70, symBinAddr: 0x100003810, symSize: 0x34 }
  - { offset: 0x2063F, size: 0x8, addend: 0x0, symName: __ZN4yvan6option23PerpetualAmericanOptionC2Ev, symObjAddr: 0x3C, symBinAddr: 0x1000037DC, symSize: 0x34 }
  - { offset: 0x20663, size: 0x8, addend: 0x0, symName: __ZNK4yvan6option23PerpetualAmericanOption5styleEv, symObjAddr: 0x0, symBinAddr: 0x1000037C8, symSize: 0x14 }
  - { offset: 0x36FBB, size: 0x8, addend: 0x0, symName: __ZN5boost10wrapexceptISt12domain_errorE7deleterD1Ev, symObjAddr: 0x4608, symBinAddr: 0x100007EB0, symSize: 0x38 }
  - { offset: 0x36FF7, size: 0x8, addend: 0x0, symName: __ZN5boost10wrapexceptISt14overflow_errorE7deleterD1Ev, symObjAddr: 0x45D0, symBinAddr: 0x100007E78, symSize: 0x38 }
  - { offset: 0x3703F, size: 0x8, addend: 0x0, symName: __ZN5boost16exception_detail12refcount_ptrINS0_20error_info_containerEEC1ERKS3_, symObjAddr: 0x459C, symBinAddr: 0x100007E44, symSize: 0x34 }
  - { offset: 0x3706B, size: 0x8, addend: 0x0, symName: __ZNK5boost10wrapexceptISt12domain_errorE7rethrowEv, symObjAddr: 0x4548, symBinAddr: 0x100007DF0, symSize: 0x54 }
  - { offset: 0x37093, size: 0x8, addend: 0x0, symName: __ZNK5boost10wrapexceptISt12domain_errorE5cloneEv, symObjAddr: 0x4460, symBinAddr: 0x100007D08, symSize: 0xE8 }
  - { offset: 0x370FA, size: 0x8, addend: 0x0, symName: __ZN5boost10wrapexceptISt12domain_errorEC1ERKS2_, symObjAddr: 0x439C, symBinAddr: 0x100007C44, symSize: 0xC4 }
  - { offset: 0x37126, size: 0x8, addend: 0x0, symName: __ZNK5boost10wrapexceptISt14overflow_errorE7rethrowEv, symObjAddr: 0x4348, symBinAddr: 0x100007BF0, symSize: 0x54 }
  - { offset: 0x3714E, size: 0x8, addend: 0x0, symName: __ZNK5boost10wrapexceptISt14overflow_errorE5cloneEv, symObjAddr: 0x4260, symBinAddr: 0x100007B08, symSize: 0xE8 }
  - { offset: 0x371B5, size: 0x8, addend: 0x0, symName: __ZN5boost10wrapexceptISt14overflow_errorEC1ERKS2_, symObjAddr: 0x419C, symBinAddr: 0x100007A44, symSize: 0xC4 }
  - { offset: 0x37202, size: 0x8, addend: 0x0, symName: __ZN5boost9exceptionC2ERKS0_, symObjAddr: 0x4110, symBinAddr: 0x1000079B8, symSize: 0x8C }
  - { offset: 0x37250, size: 0x8, addend: 0x0, symName: __ZN5boost16exception_detail10clone_baseC2ERKS1_, symObjAddr: 0x40E4, symBinAddr: 0x10000798C, symSize: 0x2C }
  - { offset: 0x3727C, size: 0x8, addend: 0x0, symName: __ZN5boost10wrapexceptISt14overflow_errorE9copy_fromEPKv, symObjAddr: 0x40CC, symBinAddr: 0x100007974, symSize: 0x18 }
  - { offset: 0x372D0, size: 0x8, addend: 0x0, symName: __ZN5boost10wrapexceptISt14overflow_errorEC1ERKS1_, symObjAddr: 0x4044, symBinAddr: 0x1000078EC, symSize: 0x88 }
  - { offset: 0x37319, size: 0x8, addend: 0x0, symName: __ZNSt14overflow_errorC2ERKS_, symObjAddr: 0x4008, symBinAddr: 0x1000078B0, symSize: 0x3C }
  - { offset: 0x37345, size: 0x8, addend: 0x0, symName: __ZN5boost10wrapexceptISt12domain_errorE9copy_fromEPKv, symObjAddr: 0x3FF0, symBinAddr: 0x100007898, symSize: 0x18 }
  - { offset: 0x37375, size: 0x8, addend: 0x0, symName: __ZNSt7__cxx1112basic_stringIcSt11char_traitsIcESaIcEE6appendEPKcm, symObjAddr: 0x3FAC, symBinAddr: 0x100007854, symSize: 0x44 }
  - { offset: 0x373CD, size: 0x8, addend: 0x0, symName: __ZN5boost15throw_exceptionISt14overflow_errorEEvRKT_, symObjAddr: 0x3F50, symBinAddr: 0x1000077F8, symSize: 0x5C }
  - { offset: 0x3741D, size: 0x8, addend: 0x0, symName: __ZN5boost10wrapexceptISt14overflow_errorED0Ev, symObjAddr: 0x3F18, symBinAddr: 0x1000077C0, symSize: 0x28 }
  - { offset: 0x37445, size: 0x8, addend: 0x0, symName: __ZN5boost10wrapexceptISt14overflow_errorED1Ev, symObjAddr: 0x3E94, symBinAddr: 0x10000773C, symSize: 0x74 }
  - { offset: 0x37465, size: 0x8, addend: 0x0, symName: __ZN5boost4math8policies6detail11prec_formatIeEENSt7__cxx1112basic_stringIcSt11char_traitsIcESaIcEEERKT_, symObjAddr: 0x3E00, symBinAddr: 0x1000076A8, symSize: 0x94 }
  - { offset: 0x374EF, size: 0x8, addend: 0x0, symName: __ZN5boost10wrapexceptISt12domain_errorEC1ERKS1_, symObjAddr: 0x3D78, symBinAddr: 0x100007620, symSize: 0x88 }
  - { offset: 0x37538, size: 0x8, addend: 0x0, symName: __ZNSt12domain_errorC2ERKS_, symObjAddr: 0x3D3C, symBinAddr: 0x1000075E4, symSize: 0x3C }
  - { offset: 0x37581, size: 0x8, addend: 0x0, symName: __ZN5boost16exception_detail10clone_baseC2Ev, symObjAddr: 0x3D14, symBinAddr: 0x1000075BC, symSize: 0x28 }
  - { offset: 0x375B7, size: 0x8, addend: 0x0, symName: __ZNSt7__cxx1112basic_stringIcSt11char_traitsIcESaIcEE6appendERKS4_, symObjAddr: 0x3CD0, symBinAddr: 0x100007578, symSize: 0x44 }
  - { offset: 0x375EF, size: 0x8, addend: 0x0, symName: __ZNSt15__new_allocatorIcE8allocateEmPKv, symObjAddr: 0x3C6C, symBinAddr: 0x100007514, symSize: 0x64 }
  - { offset: 0x3765C, size: 0x8, addend: 0x0, symName: __ZN5boost4math8policies6detail11raise_errorISt14overflow_errordEEvPKcS6_, symObjAddr: 0x3B40, symBinAddr: 0x1000073E8, symSize: 0x12C }
  - { offset: 0x37786, size: 0x8, addend: 0x0, symName: __ZN5boost4math8policies6detail11raise_errorISt12domain_erroreEEvPKcS6_RKT0_, symObjAddr: 0x3998, symBinAddr: 0x100007240, symSize: 0x1A8 }
  - { offset: 0x37940, size: 0x8, addend: 0x0, symName: __ZN5boost15throw_exceptionISt12domain_errorEEvRKT_, symObjAddr: 0x393C, symBinAddr: 0x1000071E4, symSize: 0x5C }
  - { offset: 0x37990, size: 0x8, addend: 0x0, symName: __ZN5boost10wrapexceptISt12domain_errorED0Ev, symObjAddr: 0x3904, symBinAddr: 0x1000071AC, symSize: 0x28 }
  - { offset: 0x379B8, size: 0x8, addend: 0x0, symName: __ZN5boost10wrapexceptISt12domain_errorED1Ev, symObjAddr: 0x3880, symBinAddr: 0x100007128, symSize: 0x74 }
  - { offset: 0x379D8, size: 0x8, addend: 0x0, symName: __ZN5boost4math8policies6detail11prec_formatIdEENSt7__cxx1112basic_stringIcSt11char_traitsIcESaIcEEERKT_, symObjAddr: 0x37EC, symBinAddr: 0x100007094, symSize: 0x94 }
  - { offset: 0x37A3E, size: 0x8, addend: 0x0, symName: __ZNSt7__cxx1112basic_stringIcSt11char_traitsIcESaIcEEpLERKS4_, symObjAddr: 0x37C8, symBinAddr: 0x100007070, symSize: 0x24 }
  - { offset: 0x37AB4, size: 0x8, addend: 0x0, symName: __ZN5boost4math8policies6detail20raise_overflow_errorIdEET_PKcS6_RKNS1_14overflow_errorILNS1_17error_policy_typeE0EEE, symObjAddr: 0x3778, symBinAddr: 0x100007020, symSize: 0x50 }
  - { offset: 0x37B03, size: 0x8, addend: 0x0, symName: __ZN5boost4math5tools6detail25evaluate_polynomial_c_impIeeEET0_PKT_RKS4_PKSt17integral_constantIiLi7EE, symObjAddr: 0x3660, symBinAddr: 0x100006F08, symSize: 0x118 }
  - { offset: 0x37B7D, size: 0x8, addend: 0x0, symName: __ZN5boost4math5tools6detail25evaluate_polynomial_c_impIeeEET0_PKT_RKS4_PKSt17integral_constantIiLi6EE, symObjAddr: 0x3570, symBinAddr: 0x100006E18, symSize: 0xF0 }
  - { offset: 0x37BEB, size: 0x8, addend: 0x0, symName: __ZN5boost4math5tools6detail25evaluate_polynomial_c_impIeeEET0_PKT_RKS4_PKSt17integral_constantIiLi5EE, symObjAddr: 0x34A8, symBinAddr: 0x100006D50, symSize: 0xC8 }
  - { offset: 0x37C5F, size: 0x8, addend: 0x0, symName: __ZN5boost4math8policies6detail18raise_domain_errorIeEET_PKcS6_RKS4_RKNS1_12domain_errorILNS1_17error_policy_typeE0EEE, symObjAddr: 0x346C, symBinAddr: 0x100006D14, symSize: 0x3C }
  - { offset: 0x37CB5, size: 0x8, addend: 0x0, symName: __ZN5boost4math8policies6detail11raise_errorISt12domain_errordEEvPKcS6_RKT0_, symObjAddr: 0x32C4, symBinAddr: 0x100006B6C, symSize: 0x1A8 }
  - { offset: 0x37E73, size: 0x8, addend: 0x0, symName: __ZNKSt4lessIPKcEclES1_S1_, symObjAddr: 0x3270, symBinAddr: 0x100006B18, symSize: 0x54 }
  - { offset: 0x37ED5, size: 0x8, addend: 0x0, symName: __ZNSt15__new_allocatorIcE10deallocateEPcm, symObjAddr: 0x3248, symBinAddr: 0x100006AF0, symSize: 0x28 }
  - { offset: 0x38016, size: 0x8, addend: 0x0, symName: __ZN5boost4math5tools9max_valueIdEET_v, symObjAddr: 0x322C, symBinAddr: 0x100006AD4, symSize: 0x1C }
  - { offset: 0x3804E, size: 0x8, addend: 0x0, symName: __ZN5boost4math5tools19evaluate_polynomialILm7EeeEET1_RAT__KT0_RKS3_, symObjAddr: 0x31FC, symBinAddr: 0x100006AA4, symSize: 0x30 }
  - { offset: 0x380B7, size: 0x8, addend: 0x0, symName: __ZN5boost4math5tools19evaluate_polynomialILm6EeeEET1_RAT__KT0_RKS3_, symObjAddr: 0x31CC, symBinAddr: 0x100006A74, symSize: 0x30 }
  - { offset: 0x38120, size: 0x8, addend: 0x0, symName: __ZN5boost4math5tools19evaluate_polynomialILm5EeeEET1_RAT__KT0_RKS3_, symObjAddr: 0x319C, symBinAddr: 0x100006A44, symSize: 0x30 }
  - { offset: 0x38178, size: 0x8, addend: 0x0, symName: __ZN5boost4math8policies18raise_domain_errorIeNS1_6policyINS1_13promote_floatILb0EEENS1_14promote_doubleILb0EEENS1_14default_policyES8_S8_S8_S8_S8_S8_S8_S8_S8_S8_EEEET_PKcSC_RKSA_RKT0_, symObjAddr: 0x3140, symBinAddr: 0x1000069E8, symSize: 0x5C }
  - { offset: 0x381DA, size: 0x8, addend: 0x0, symName: __ZN5boost4math9constants6detail17constant_root_twoIdE3getERKSt17integral_constantIiLi2EE, symObjAddr: 0x3124, symBinAddr: 0x1000069CC, symSize: 0x1C }
  - { offset: 0x381FA, size: 0x8, addend: 0x0, symName: __ZN5boost4math8policies6detail18raise_domain_errorIdEET_PKcS6_RKS4_RKNS1_12domain_errorILNS1_17error_policy_typeE0EEE, symObjAddr: 0x30E8, symBinAddr: 0x100006990, symSize: 0x3C }
  - { offset: 0x38256, size: 0x8, addend: 0x0, symName: __ZN5boost4math6detail13isfinite_implIdEEbT_RKNS1_10native_tagE, symObjAddr: 0x30C8, symBinAddr: 0x100006970, symSize: 0x20 }
  - { offset: 0x3828F, size: 0x8, addend: 0x0, symName: __ZN5boost4math6detail10isnan_implIeEEbT_RKNS1_10native_tagE, symObjAddr: 0x30A8, symBinAddr: 0x100006950, symSize: 0x20 }
  - { offset: 0x382D1, size: 0x8, addend: 0x0, symName: __ZNSt7__cxx1112basic_stringIcSt11char_traitsIcESaIcEE15_M_replace_coldEPcmPKcmm, symObjAddr: 0x2F10, symBinAddr: 0x1000067B8, symSize: 0x198 }
  - { offset: 0x38389, size: 0x8, addend: 0x0, symName: __ZNSt7__cxx1112basic_stringIcSt11char_traitsIcESaIcEE7_S_moveEPcPKcm, symObjAddr: 0x2EC4, symBinAddr: 0x10000676C, symSize: 0x4C }
  - { offset: 0x383D5, size: 0x8, addend: 0x0, symName: __ZNKSt7__cxx1112basic_stringIcSt11char_traitsIcESaIcEE11_M_disjunctEPKc, symObjAddr: 0x2E40, symBinAddr: 0x1000066E8, symSize: 0x84 }
  - { offset: 0x3847F, size: 0x8, addend: 0x0, symName: __ZNSt7__cxx1112basic_stringIcSt11char_traitsIcESaIcEE11_S_allocateERS3_m, symObjAddr: 0x2DA4, symBinAddr: 0x10000664C, symSize: 0x9C }
  - { offset: 0x38530, size: 0x8, addend: 0x0, symName: __ZNSt19__ptr_traits_ptr_toIPKcS0_Lb0EE10pointer_toERS0_, symObjAddr: 0x2D7C, symBinAddr: 0x100006624, symSize: 0x28 }
  - { offset: 0x38619, size: 0x8, addend: 0x0, symName: __ZN5boost4math6detail7erf_impIeNS0_8policies6policyINS3_13promote_floatILb0EEENS3_14promote_doubleILb0EEENS3_14default_policyES9_S9_S9_S9_S9_S9_S9_S9_S9_S9_EEEET_SB_bRKT0_RKSt17integral_constantIiLi53EE, symObjAddr: 0x2670, symBinAddr: 0x100005F18, symSize: 0x70C }
  - { offset: 0x38710, size: 0x8, addend: 0x0, symName: __ZZN5boost4math6detail7erf_impIeNS0_8policies6policyINS3_13promote_floatILb0EEENS3_14promote_doubleILb0EEENS3_14default_policyES9_S9_S9_S9_S9_S9_S9_S9_S9_S9_EEEET_SB_bRKT0_RKSt17integral_constantIiLi53EEE1P, symObjAddr: 0x52E8, symBinAddr: 0x100016EE0, symSize: 0x0 }
  - { offset: 0x3872C, size: 0x8, addend: 0x0, symName: __ZZN5boost4math6detail7erf_impIeNS0_8policies6policyINS3_13promote_floatILb0EEENS3_14promote_doubleILb0EEENS3_14default_policyES9_S9_S9_S9_S9_S9_S9_S9_S9_S9_EEEET_SB_bRKT0_RKSt17integral_constantIiLi53EEE1Q, symObjAddr: 0x5310, symBinAddr: 0x100016F08, symSize: 0x0 }
  - { offset: 0x38786, size: 0x8, addend: 0x0, symName: __ZZN5boost4math6detail7erf_impIeNS0_8policies6policyINS3_13promote_floatILb0EEENS3_14promote_doubleILb0EEENS3_14default_policyES9_S9_S9_S9_S9_S9_S9_S9_S9_S9_EEEET_SB_bRKT0_RKSt17integral_constantIiLi53EEE1P_0, symObjAddr: 0x5338, symBinAddr: 0x100016F30, symSize: 0x0 }
  - { offset: 0x387A2, size: 0x8, addend: 0x0, symName: __ZZN5boost4math6detail7erf_impIeNS0_8policies6policyINS3_13promote_floatILb0EEENS3_14promote_doubleILb0EEENS3_14default_policyES9_S9_S9_S9_S9_S9_S9_S9_S9_S9_EEEET_SB_bRKT0_RKSt17integral_constantIiLi53EEE1Q_0, symObjAddr: 0x5368, symBinAddr: 0x100016F60, symSize: 0x0 }
  - { offset: 0x387EB, size: 0x8, addend: 0x0, symName: __ZZN5boost4math6detail7erf_impIeNS0_8policies6policyINS3_13promote_floatILb0EEENS3_14promote_doubleILb0EEENS3_14default_policyES9_S9_S9_S9_S9_S9_S9_S9_S9_S9_EEEET_SB_bRKT0_RKSt17integral_constantIiLi53EEE1P_1, symObjAddr: 0x53A0, symBinAddr: 0x100016F98, symSize: 0x0 }
  - { offset: 0x38807, size: 0x8, addend: 0x0, symName: __ZZN5boost4math6detail7erf_impIeNS0_8policies6policyINS3_13promote_floatILb0EEENS3_14promote_doubleILb0EEENS3_14default_policyES9_S9_S9_S9_S9_S9_S9_S9_S9_S9_EEEET_SB_bRKT0_RKSt17integral_constantIiLi53EEE1Q_1, symObjAddr: 0x53D0, symBinAddr: 0x100016FC8, symSize: 0x0 }
  - { offset: 0x388A5, size: 0x8, addend: 0x0, symName: __ZZN5boost4math6detail7erf_impIeNS0_8policies6policyINS3_13promote_floatILb0EEENS3_14promote_doubleILb0EEENS3_14default_policyES9_S9_S9_S9_S9_S9_S9_S9_S9_S9_EEEET_SB_bRKT0_RKSt17integral_constantIiLi53EEE1P_2, symObjAddr: 0x5400, symBinAddr: 0x100016FF8, symSize: 0x0 }
  - { offset: 0x388C1, size: 0x8, addend: 0x0, symName: __ZZN5boost4math6detail7erf_impIeNS0_8policies6policyINS3_13promote_floatILb0EEENS3_14promote_doubleILb0EEENS3_14default_policyES9_S9_S9_S9_S9_S9_S9_S9_S9_S9_EEEET_SB_bRKT0_RKSt17integral_constantIiLi53EEE1Q_2, symObjAddr: 0x5430, symBinAddr: 0x100017028, symSize: 0x0 }
  - { offset: 0x3895D, size: 0x8, addend: 0x0, symName: __ZZN5boost4math6detail7erf_impIeNS0_8policies6policyINS3_13promote_floatILb0EEENS3_14promote_doubleILb0EEENS3_14default_policyES9_S9_S9_S9_S9_S9_S9_S9_S9_S9_EEEET_SB_bRKT0_RKSt17integral_constantIiLi53EEE1P_3, symObjAddr: 0x5460, symBinAddr: 0x100017058, symSize: 0x0 }
  - { offset: 0x38979, size: 0x8, addend: 0x0, symName: __ZZN5boost4math6detail7erf_impIeNS0_8policies6policyINS3_13promote_floatILb0EEENS3_14promote_doubleILb0EEENS3_14default_policyES9_S9_S9_S9_S9_S9_S9_S9_S9_S9_EEEET_SB_bRKT0_RKSt17integral_constantIiLi53EEE1Q_3, symObjAddr: 0x5498, symBinAddr: 0x100017090, symSize: 0x0 }
  - { offset: 0x389D9, size: 0x8, addend: 0x0, symName: __ZN5boost4math9constants8root_twoIdNS0_8policies6policyINS3_14default_policyES5_S5_S5_S5_S5_S5_S5_S5_S5_S5_S5_S5_EEEENS1_6detail15constant_returnIT_T0_E4typeEv, symObjAddr: 0x2650, symBinAddr: 0x100005EF8, symSize: 0x20 }
  - { offset: 0x38A03, size: 0x8, addend: 0x0, symName: __ZN5boost4math6detail10isinf_implIdEEbT_RKNS1_10native_tagE, symObjAddr: 0x2630, symBinAddr: 0x100005ED8, symSize: 0x20 }
  - { offset: 0x38A42, size: 0x8, addend: 0x0, symName: __ZN5boost4math8policies18raise_domain_errorIdNS1_6policyINS1_14default_policyES4_S4_S4_S4_S4_S4_S4_S4_S4_S4_S4_S4_EEEET_PKcS8_RKS6_RKT0_, symObjAddr: 0x25D4, symBinAddr: 0x100005E7C, symSize: 0x5C }
  - { offset: 0x38AA4, size: 0x8, addend: 0x0, symName: __ZN5boost4math8isfiniteIdEEbT_, symObjAddr: 0x25B4, symBinAddr: 0x100005E5C, symSize: 0x20 }
  - { offset: 0x38AE2, size: 0x8, addend: 0x0, symName: __ZN5boost4math5isnanIeEEbT_, symObjAddr: 0x2594, symBinAddr: 0x100005E3C, symSize: 0x20 }
  - { offset: 0x38B17, size: 0x8, addend: 0x0, symName: __ZNKSt7__cxx1112basic_stringIcSt11char_traitsIcESaIcEE8_M_limitEmm, symObjAddr: 0x2528, symBinAddr: 0x100005DD0, symSize: 0x6C }
  - { offset: 0x38B6F, size: 0x8, addend: 0x0, symName: __ZNKSt7__cxx1112basic_stringIcSt11char_traitsIcESaIcEE8_M_checkEmPKc, symObjAddr: 0x24B0, symBinAddr: 0x100005D58, symSize: 0x78 }
  - { offset: 0x38BBC, size: 0x8, addend: 0x0, symName: __ZNSt7__cxx1112basic_stringIcSt11char_traitsIcESaIcEE10_M_replaceEmmPKcm, symObjAddr: 0x2240, symBinAddr: 0x100005AE8, symSize: 0x270 }
  - { offset: 0x38CE7, size: 0x8, addend: 0x0, symName: __ZN5boost16exception_detail12refcount_ptrINS0_20error_info_containerEE7add_refEv, symObjAddr: 0x21F8, symBinAddr: 0x100005AA0, symSize: 0x48 }
  - { offset: 0x38D14, size: 0x8, addend: 0x0, symName: __ZNSt7__cxx1112basic_stringIcSt11char_traitsIcESaIcEE9_M_mutateEmmPKcm, symObjAddr: 0x20A0, symBinAddr: 0x100005948, symSize: 0x158 }
  - { offset: 0x38DB2, size: 0x8, addend: 0x0, symName: __ZNSt7__cxx1112basic_stringIcSt11char_traitsIcESaIcEE9_M_appendEPKcm, symObjAddr: 0x1FD8, symBinAddr: 0x100005880, symSize: 0xC8 }
  - { offset: 0x38E0A, size: 0x8, addend: 0x0, symName: __ZNKSt7__cxx1112basic_stringIcSt11char_traitsIcESaIcEE15_M_check_lengthEmmPKc, symObjAddr: 0x1F64, symBinAddr: 0x10000580C, symSize: 0x74 }
  - { offset: 0x38E5E, size: 0x8, addend: 0x0, symName: __ZNSt7__cxx1112basic_stringIcSt11char_traitsIcESaIcEE13_S_copy_charsIPKcEEvPcT_S9_, symObjAddr: 0x1F1C, symBinAddr: 0x1000057C4, symSize: 0x48 }
  - { offset: 0x38EF9, size: 0x8, addend: 0x0, symName: __ZNSt7__cxx1112basic_stringIcSt11char_traitsIcESaIcEE7_S_copyEPcPKcm, symObjAddr: 0x1ED0, symBinAddr: 0x100005778, symSize: 0x4C }
  - { offset: 0x38F49, size: 0x8, addend: 0x0, symName: __ZNSt7__cxx1112basic_stringIcSt11char_traitsIcESaIcEE9_M_createERmm, symObjAddr: 0x1DDC, symBinAddr: 0x100005684, symSize: 0xF4 }
  - { offset: 0x38F8F, size: 0x8, addend: 0x0, symName: __ZNKSt7__cxx1112basic_stringIcSt11char_traitsIcESaIcEE13_M_local_dataEv, symObjAddr: 0x1DBC, symBinAddr: 0x100005664, symSize: 0x20 }
  - { offset: 0x38FB7, size: 0x8, addend: 0x0, symName: __ZNSt7__cxx1112basic_stringIcSt11char_traitsIcESaIcEE10_M_destroyEm, symObjAddr: 0x1D24, symBinAddr: 0x1000055CC, symSize: 0x98 }
  - { offset: 0x39067, size: 0x8, addend: 0x0, symName: __ZN5boost4math4erfcIdNS0_8policies6policyINS2_14default_policyES4_S4_S4_S4_S4_S4_S4_S4_S4_S4_S4_S4_EEEENS0_5tools12promote_argsIJT_EE4typeES8_RKT0_, symObjAddr: 0x1BE4, symBinAddr: 0x10000548C, symSize: 0x140 }
  - { offset: 0x39194, size: 0x8, addend: 0x0, symName: __ZN5boost4math9constants8root_twoIdEENS1_6detail15constant_returnIT_NS0_8policies6policyINS6_14default_policyES8_S8_S8_S8_S8_S8_S8_S8_S8_S8_S8_S8_EEE4typeEv, symObjAddr: 0x1BC8, symBinAddr: 0x100005470, symSize: 0x1C }
  - { offset: 0x391B5, size: 0x8, addend: 0x0, symName: __ZN5boost4math6detail7check_xIdNS0_8policies6policyINS3_14default_policyES5_S5_S5_S5_S5_S5_S5_S5_S5_S5_S5_S5_EEEEbPKcT_PS9_RKT0_, symObjAddr: 0x1B54, symBinAddr: 0x1000053FC, symSize: 0x74 }
  - { offset: 0x3921B, size: 0x8, addend: 0x0, symName: __ZN5boost4math5isinfIdEEbT_, symObjAddr: 0x1B34, symBinAddr: 0x1000053DC, symSize: 0x20 }
  - { offset: 0x3925D, size: 0x8, addend: 0x0, symName: __ZNK5boost4math19normal_distributionIdNS0_8policies6policyINS2_14default_policyES4_S4_S4_S4_S4_S4_S4_S4_S4_S4_S4_S4_EEE4meanEv, symObjAddr: 0x1B18, symBinAddr: 0x1000053C0, symSize: 0x1C }
  - { offset: 0x39285, size: 0x8, addend: 0x0, symName: __ZNK5boost4math19normal_distributionIdNS0_8policies6policyINS2_14default_policyES4_S4_S4_S4_S4_S4_S4_S4_S4_S4_S4_S4_EEE18standard_deviationEv, symObjAddr: 0x1AFC, symBinAddr: 0x1000053A4, symSize: 0x1C }
  - { offset: 0x392A9, size: 0x8, addend: 0x0, symName: __ZN5boost4math6detail14check_locationIdNS0_8policies6policyINS3_14default_policyES5_S5_S5_S5_S5_S5_S5_S5_S5_S5_S5_S5_EEEEbPKcT_PS9_RKT0_, symObjAddr: 0x1A88, symBinAddr: 0x100005330, symSize: 0x74 }
  - { offset: 0x3930F, size: 0x8, addend: 0x0, symName: __ZN5boost4math6detail11check_scaleIdNS0_8policies6policyINS3_14default_policyES5_S5_S5_S5_S5_S5_S5_S5_S5_S5_S5_S5_EEEEbPKcT_PS9_RKT0_, symObjAddr: 0x19F0, symBinAddr: 0x100005298, symSize: 0x98 }
  - { offset: 0x39379, size: 0x8, addend: 0x0, symName: __ZNSt7__cxx1112basic_stringIcSt11char_traitsIcESaIcEE7replaceEmmPKcm, symObjAddr: 0x1984, symBinAddr: 0x10000522C, symSize: 0x6C }
  - { offset: 0x393E6, size: 0x8, addend: 0x0, symName: __ZNKSt7__cxx1112basic_stringIcSt11char_traitsIcESaIcEE4findEPKcmm, symObjAddr: 0x1820, symBinAddr: 0x1000050C8, symSize: 0x164 }
  - { offset: 0x394A0, size: 0x8, addend: 0x0, symName: __ZN5boost16exception_detail12refcount_ptrINS0_20error_info_containerEE5adoptEPS2_, symObjAddr: 0x17E8, symBinAddr: 0x100005090, symSize: 0x38 }
  - { offset: 0x394D7, size: 0x8, addend: 0x0, symName: __ZN5boost16exception_detail12refcount_ptrINS0_20error_info_containerEE7releaseEv, symObjAddr: 0x1774, symBinAddr: 0x10000501C, symSize: 0x74 }
  - { offset: 0x394FF, size: 0x8, addend: 0x0, symName: __ZNSt7__cxx1112basic_stringIcSt11char_traitsIcESaIcEE6appendEPKc, symObjAddr: 0x1728, symBinAddr: 0x100004FD0, symSize: 0x4C }
  - { offset: 0x39547, size: 0x8, addend: 0x0, symName: __ZNSt7__cxx1112basic_stringIcSt11char_traitsIcESaIcEE12_M_constructIPKcEEvT_S8_St20forward_iterator_tag, symObjAddr: 0x15E8, symBinAddr: 0x100004E90, symSize: 0x140 }
  - { offset: 0x3963C, size: 0x8, addend: 0x0, symName: __ZZNSt7__cxx1112basic_stringIcSt11char_traitsIcESaIcEE12_M_constructIPKcEEvT_S8_St20forward_iterator_tagEN6_GuardC1EPS4_, symObjAddr: 0x1590, symBinAddr: 0x100004E38, symSize: 0x24 }
  - { offset: 0x3966C, size: 0x8, addend: 0x0, symName: __ZZNSt7__cxx1112basic_stringIcSt11char_traitsIcESaIcEE12_M_constructIPKcEEvT_S8_St20forward_iterator_tagEN6_GuardD1Ev, symObjAddr: 0x15B4, symBinAddr: 0x100004E5C, symSize: 0x34 }
  - { offset: 0x3978F, size: 0x8, addend: 0x0, symName: __ZNSt7__cxx1112basic_stringIcSt11char_traitsIcESaIcEE12_Alloc_hiderC1EPcRKS3_, symObjAddr: 0x1540, symBinAddr: 0x100004DE8, symSize: 0x50 }
  - { offset: 0x39817, size: 0x8, addend: 0x0, symName: __ZNKSt7__cxx1112basic_stringIcSt11char_traitsIcESaIcEE4dataEv, symObjAddr: 0x1524, symBinAddr: 0x100004DCC, symSize: 0x1C }
  - { offset: 0x39854, size: 0x8, addend: 0x0, symName: __ZNSt7__cxx1112basic_stringIcSt11char_traitsIcESaIcEE11_M_capacityEm, symObjAddr: 0x1500, symBinAddr: 0x100004DA8, symSize: 0x24 }
  - { offset: 0x3988C, size: 0x8, addend: 0x0, symName: __ZNSt7__cxx1112basic_stringIcSt11char_traitsIcESaIcEE7_M_dataEPc, symObjAddr: 0x14DC, symBinAddr: 0x100004D84, symSize: 0x24 }
  - { offset: 0x398C3, size: 0x8, addend: 0x0, symName: __ZNKSt7__cxx1112basic_stringIcSt11char_traitsIcESaIcEE6lengthEv, symObjAddr: 0x14C0, symBinAddr: 0x100004D68, symSize: 0x1C }
  - { offset: 0x398EB, size: 0x8, addend: 0x0, symName: __ZNSt7__cxx1112basic_stringIcSt11char_traitsIcESaIcEE16_M_get_allocatorEv, symObjAddr: 0x14AC, symBinAddr: 0x100004D54, symSize: 0x14 }
  - { offset: 0x39913, size: 0x8, addend: 0x0, symName: __ZNKSt7__cxx1112basic_stringIcSt11char_traitsIcESaIcEE11_M_is_localEv, symObjAddr: 0x1444, symBinAddr: 0x100004CEC, symSize: 0x68 }
  - { offset: 0x3993B, size: 0x8, addend: 0x0, symName: __ZNKSt7__cxx1112basic_stringIcSt11char_traitsIcESaIcEE8capacityEv, symObjAddr: 0x13C0, symBinAddr: 0x100004C68, symSize: 0x84 }
  - { offset: 0x39973, size: 0x8, addend: 0x0, symName: __ZNSt7__cxx1112basic_stringIcSt11char_traitsIcESaIcEE10_M_disposeEv, symObjAddr: 0x1378, symBinAddr: 0x100004C20, symSize: 0x48 }
  - { offset: 0x3999B, size: 0x8, addend: 0x0, symName: __ZNSt7__cxx1112basic_stringIcSt11char_traitsIcESaIcEE9_M_lengthEm, symObjAddr: 0x1354, symBinAddr: 0x100004BFC, symSize: 0x24 }
  - { offset: 0x399CE, size: 0x8, addend: 0x0, symName: __ZN9__gnu_cxx11char_traitsIcE2eqERKcS3_, symObjAddr: 0x1324, symBinAddr: 0x100004BCC, symSize: 0x30 }
  - { offset: 0x39A2C, size: 0x8, addend: 0x0, symName: __ZN5boost4math3pdfIdNS0_8policies6policyINS2_14default_policyES4_S4_S4_S4_S4_S4_S4_S4_S4_S4_S4_S4_EEEET_RKNS0_19normal_distributionIS6_T0_EERKS6_, symObjAddr: 0x1170, symBinAddr: 0x100004A18, symSize: 0x1B4 }
  - { offset: 0x39AC2, size: 0x8, addend: 0x0, symName: __ZN5boost4math3cdfIdNS0_8policies6policyINS2_14default_policyES4_S4_S4_S4_S4_S4_S4_S4_S4_S4_S4_S4_EEEET_RKNS0_19normal_distributionIS6_T0_EERKS6_, symObjAddr: 0xFCC, symBinAddr: 0x100004874, symSize: 0x1A4 }
  - { offset: 0x39BAA, size: 0x8, addend: 0x0, symName: __ZN5boost4math19normal_distributionIdNS0_8policies6policyINS2_14default_policyES4_S4_S4_S4_S4_S4_S4_S4_S4_S4_S4_S4_EEEC1Edd, symObjAddr: 0xF48, symBinAddr: 0x1000047F0, symSize: 0x84 }
  - { offset: 0x39C1A, size: 0x8, addend: 0x0, symName: __ZNKSt7__cxx1112basic_stringIcSt11char_traitsIcESaIcEE7_M_dataEv, symObjAddr: 0xF30, symBinAddr: 0x1000047D8, symSize: 0x18 }
  - { offset: 0x39C42, size: 0x8, addend: 0x0, symName: __ZNSt7__cxx1112basic_stringIcSt11char_traitsIcESaIcEE7replaceEmmPKc, symObjAddr: 0xEF0, symBinAddr: 0x100004798, symSize: 0x40 }
  - { offset: 0x39C9A, size: 0x8, addend: 0x0, symName: __ZNKSt7__cxx1112basic_stringIcSt11char_traitsIcESaIcEE4findEPKcm, symObjAddr: 0xEB8, symBinAddr: 0x100004760, symSize: 0x38 }
  - { offset: 0x39CE2, size: 0x8, addend: 0x0, symName: __ZNKSt7__cxx1112basic_stringIcSt11char_traitsIcESaIcEE8max_sizeEv, symObjAddr: 0xE80, symBinAddr: 0x100004728, symSize: 0x38 }
  - { offset: 0x39D2A, size: 0x8, addend: 0x0, symName: __ZN5boost16exception_detail12refcount_ptrINS0_20error_info_containerEEaSERKS3_, symObjAddr: 0xE18, symBinAddr: 0x1000046F8, symSize: 0x30 }
  - { offset: 0x39D61, size: 0x8, addend: 0x0, symName: __ZNK5boost16exception_detail12refcount_ptrINS0_20error_info_containerEE3getEv, symObjAddr: 0xE00, symBinAddr: 0x1000046E0, symSize: 0x18 }
  - { offset: 0x39DA1, size: 0x8, addend: 0x0, symName: __ZN5boost16exception_detail12refcount_ptrINS0_20error_info_containerEED1Ev, symObjAddr: 0xDE0, symBinAddr: 0x1000046C0, symSize: 0x20 }
  - { offset: 0x39DDD, size: 0x8, addend: 0x0, symName: __ZN5boost16exception_detail12refcount_ptrINS0_20error_info_containerEEC1Ev, symObjAddr: 0xDC4, symBinAddr: 0x1000046A4, symSize: 0x1C }
  - { offset: 0x39E01, size: 0x8, addend: 0x0, symName: __ZNSt7__cxx1112basic_stringIcSt11char_traitsIcESaIcEEpLEPKc, symObjAddr: 0xDA0, symBinAddr: 0x100004680, symSize: 0x24 }
  - { offset: 0x39E7C, size: 0x8, addend: 0x0, symName: __ZNSt7__cxx1112basic_stringIcSt11char_traitsIcESaIcEEC1IS3_EEPKcRKS3_, symObjAddr: 0xD04, symBinAddr: 0x1000045E4, symSize: 0x9C }
  - { offset: 0x39EF5, size: 0x8, addend: 0x0, symName: __ZNSt7__cxx1112basic_stringIcSt11char_traitsIcESaIcEED1Ev, symObjAddr: 0xCDC, symBinAddr: 0x1000045BC, symSize: 0x28 }
  - { offset: 0x39F19, size: 0x8, addend: 0x0, symName: __ZNSt7__cxx1112basic_stringIcSt11char_traitsIcESaIcEE13_M_set_lengthEm, symObjAddr: 0xC94, symBinAddr: 0x100004574, symSize: 0x48 }
  - { offset: 0x39F51, size: 0x8, addend: 0x0, symName: __ZNKSt7__cxx1112basic_stringIcSt11char_traitsIcESaIcEE5c_strEv, symObjAddr: 0xC78, symBinAddr: 0x100004558, symSize: 0x1C }
  - { offset: 0x39F75, size: 0x8, addend: 0x0, symName: __ZN9__gnu_cxx11char_traitsIcE4copyEPcPKcm, symObjAddr: 0xBC4, symBinAddr: 0x1000044A4, symSize: 0xB4 }
  - { offset: 0x39FF9, size: 0x8, addend: 0x0, symName: __ZN9__gnu_cxx11char_traitsIcE4moveEPcPKcm, symObjAddr: 0xB58, symBinAddr: 0x100004438, symSize: 0x6C }
  - { offset: 0x3A056, size: 0x8, addend: 0x0, symName: __ZN9__gnu_cxx11char_traitsIcE4findEPKcmRS2_, symObjAddr: 0xAE4, symBinAddr: 0x1000043C4, symSize: 0x74 }
  - { offset: 0x3A0BC, size: 0x8, addend: 0x0, symName: __ZN9__gnu_cxx11char_traitsIcE6lengthEPKc, symObjAddr: 0xA8C, symBinAddr: 0x10000436C, symSize: 0x58 }
  - { offset: 0x3A0F2, size: 0x8, addend: 0x0, symName: __ZSt12construct_atIcJRKcEQaant20is_unbounded_array_vIT_ErqXgsnwcvPvLi0E_S2_pispcl7declvalIT0_EEEEEPS2_S5_DpOS4_, symObjAddr: 0xA1C, symBinAddr: 0x1000042FC, symSize: 0x70 }
  - { offset: 0x3A1AE, size: 0x8, addend: 0x0, symName: __ZN4yvan4util1nEd, symObjAddr: 0x94C, symBinAddr: 0x10000422C, symSize: 0xD0 }
  - { offset: 0x3A1DD, size: 0x8, addend: 0x0, symName: __ZZN4yvan4util1nEdE11normal_dist, symObjAddr: 0x8DD98, symBinAddr: 0x100024038, symSize: 0x0 }
  - { offset: 0x3A1EB, size: 0x8, addend: 0x0, symName: __ZN4yvan4util1NEd, symObjAddr: 0x87C, symBinAddr: 0x10000415C, symSize: 0xD0 }
  - { offset: 0x3A21A, size: 0x8, addend: 0x0, symName: __ZZN4yvan4util1NEdE11normal_dist, symObjAddr: 0x8DD80, symBinAddr: 0x100024020, symSize: 0x0 }
  - { offset: 0x3A228, size: 0x8, addend: 0x0, symName: __ZN5boost4math9constants6detail11constant_piIdE3getERKSt17integral_constantIiLi2EE, symObjAddr: 0x860, symBinAddr: 0x100004140, symSize: 0x1C }
  - { offset: 0x3A248, size: 0x8, addend: 0x0, symName: __ZN5boost4math9constants2piIdNS0_8policies6policyINS3_14default_policyES5_S5_S5_S5_S5_S5_S5_S5_S5_S5_S5_S5_EEEENS1_6detail15constant_returnIT_T0_E4typeEv, symObjAddr: 0x840, symBinAddr: 0x100004120, symSize: 0x20 }
  - { offset: 0x3A272, size: 0x8, addend: 0x0, symName: __ZN5boost4math9constants2piIdEENS1_6detail15constant_returnIT_NS0_8policies6policyINS6_14default_policyES8_S8_S8_S8_S8_S8_S8_S8_S8_S8_S8_S8_EEE4typeEv, symObjAddr: 0x824, symBinAddr: 0x100004104, symSize: 0x1C }
  - { offset: 0x3A293, size: 0x8, addend: 0x0, symName: __ZN5boost4math8policies6detail7name_ofIeEEPKcv, symObjAddr: 0x818, symBinAddr: 0x1000040F8, symSize: 0xC }
  - { offset: 0x3A2B4, size: 0x8, addend: 0x0, symName: __ZN5boost4math8policies6detail7name_ofIdEEPKcv, symObjAddr: 0x80C, symBinAddr: 0x1000040EC, symSize: 0xC }
  - { offset: 0x3A2DB, size: 0x8, addend: 0x0, symName: __ZN5boost4math8policies6detail21replace_all_in_stringERNSt7__cxx1112basic_stringIcSt11char_traitsIcESaIcEEEPKcSB_, symObjAddr: 0x774, symBinAddr: 0x100004054, symSize: 0x98 }
  - { offset: 0x3A34D, size: 0x8, addend: 0x0, symName: __ZSt12setprecisioni, symObjAddr: 0x760, symBinAddr: 0x100004040, symSize: 0x14 }
  - { offset: 0x3A378, size: 0x8, addend: 0x0, symName: __ZNKSt7__cxx1112basic_stringIcSt11char_traitsIcESaIcEE4sizeEv, symObjAddr: 0x710, symBinAddr: 0x100003FF0, symSize: 0x50 }
  - { offset: 0x3A3B2, size: 0x8, addend: 0x0, symName: __ZN5boost36throw_exception_assert_compatibilityERKSt9exception, symObjAddr: 0x6FC, symBinAddr: 0x100003FDC, symSize: 0x14 }
  - { offset: 0x3A3D2, size: 0x8, addend: 0x0, symName: __ZN5boost16exception_detail20copy_boost_exceptionEPNS_9exceptionEPKS1_, symObjAddr: 0x604, symBinAddr: 0x100003EE4, symSize: 0xF8 }
  - { offset: 0x3A44D, size: 0x8, addend: 0x0, symName: __ZN5boost16exception_detail10clone_baseD2Ev, symObjAddr: 0x5DC, symBinAddr: 0x100003EBC, symSize: 0x28 }
  - { offset: 0x3A489, size: 0x8, addend: 0x0, symName: __ZN5boost9exceptionD2Ev, symObjAddr: 0x5A4, symBinAddr: 0x100003E84, symSize: 0x38 }
  - { offset: 0x3A4C5, size: 0x8, addend: 0x0, symName: __ZN5boost9exceptionC2Ev, symObjAddr: 0x544, symBinAddr: 0x100003E24, symSize: 0x60 }
  - { offset: 0x3A5B7, size: 0x8, addend: 0x0, symName: __ZNSt19__ptr_traits_ptr_toIPccLb0EE10pointer_toERc, symObjAddr: 0x51C, symBinAddr: 0x100003DFC, symSize: 0x28 }
  - { offset: 0x3A626, size: 0x8, addend: 0x0, symName: __ZNSt7__cxx1112basic_stringIcSt11char_traitsIcESaIcEE13_M_local_dataEv, symObjAddr: 0x4FC, symBinAddr: 0x100003DDC, symSize: 0x20 }
  - { offset: 0x3A66A, size: 0x8, addend: 0x0, symName: __ZNSt7__cxx1112basic_stringIcSt11char_traitsIcESaIcEE12_Alloc_hiderD1Ev, symObjAddr: 0x4DC, symBinAddr: 0x100003DBC, symSize: 0x20 }
  - { offset: 0x3A6AC, size: 0x8, addend: 0x0, symName: __ZNSt11char_traitsIcE4copyEPcPKcm, symObjAddr: 0x464, symBinAddr: 0x100003D44, symSize: 0x78 }
  - { offset: 0x3A70E, size: 0x8, addend: 0x0, symName: __ZNSt11char_traitsIcE4moveEPcPKcm, symObjAddr: 0x3FC, symBinAddr: 0x100003CDC, symSize: 0x68 }
  - { offset: 0x3A770, size: 0x8, addend: 0x0, symName: __ZNSt11char_traitsIcE4findEPKcmRS1_, symObjAddr: 0x38C, symBinAddr: 0x100003C6C, symSize: 0x70 }
  - { offset: 0x3A7D2, size: 0x8, addend: 0x0, symName: __ZNSt11char_traitsIcE6lengthEPKc, symObjAddr: 0x350, symBinAddr: 0x100003C30, symSize: 0x3C }
  - { offset: 0x3A814, size: 0x8, addend: 0x0, symName: __ZNSt11char_traitsIcE7compareEPKcS2_m, symObjAddr: 0x260, symBinAddr: 0x100003B40, symSize: 0xF0 }
  - { offset: 0x3A898, size: 0x8, addend: 0x0, symName: __ZNSt11char_traitsIcE2ltERKcS2_, symObjAddr: 0x228, symBinAddr: 0x100003B08, symSize: 0x38 }
  - { offset: 0x3A8D0, size: 0x8, addend: 0x0, symName: __ZNSt11char_traitsIcE6assignERcRKc, symObjAddr: 0x1DC, symBinAddr: 0x100003ABC, symSize: 0x4C }
  - { offset: 0x3A922, size: 0x8, addend: 0x0, symName: __ZSt5isnane, symObjAddr: 0x1AC, symBinAddr: 0x100003A8C, symSize: 0x30 }
  - { offset: 0x3A94A, size: 0x8, addend: 0x0, symName: __ZSt5isinfd, symObjAddr: 0x16C, symBinAddr: 0x100003A4C, symSize: 0x40 }
  - { offset: 0x3A972, size: 0x8, addend: 0x0, symName: __ZSt8isfinited, symObjAddr: 0x12C, symBinAddr: 0x100003A0C, symSize: 0x40 }
  - { offset: 0x3A99A, size: 0x8, addend: 0x0, symName: __ZSt5ldexpei, symObjAddr: 0x100, symBinAddr: 0x1000039E0, symSize: 0x2C }
  - { offset: 0x3A9D8, size: 0x8, addend: 0x0, symName: __ZSt5frexpePi, symObjAddr: 0xD4, symBinAddr: 0x1000039B4, symSize: 0x2C }
  - { offset: 0x3AA10, size: 0x8, addend: 0x0, symName: __ZSt5floore, symObjAddr: 0xB8, symBinAddr: 0x100003998, symSize: 0x1C }
  - { offset: 0x3AA38, size: 0x8, addend: 0x0, symName: __ZSt4fabse, symObjAddr: 0x9C, symBinAddr: 0x10000397C, symSize: 0x1C }
  - { offset: 0x3AA5F, size: 0x8, addend: 0x0, symName: __ZSt3expe, symObjAddr: 0x78, symBinAddr: 0x100003958, symSize: 0x24 }
  - { offset: 0x3AA87, size: 0x8, addend: 0x0, symName: __ZNSt14numeric_limitsIeE9quiet_NaNEv, symObjAddr: 0x68, symBinAddr: 0x100003948, symSize: 0x10 }
  - { offset: 0x3AA9F, size: 0x8, addend: 0x0, symName: __ZNSt14numeric_limitsIdE9quiet_NaNEv, symObjAddr: 0x58, symBinAddr: 0x100003938, symSize: 0x10 }
  - { offset: 0x3AAB7, size: 0x8, addend: 0x0, symName: __ZNSt14numeric_limitsIdE8infinityEv, symObjAddr: 0x48, symBinAddr: 0x100003928, symSize: 0x10 }
  - { offset: 0x3AACF, size: 0x8, addend: 0x0, symName: __ZNSt14numeric_limitsIdE3maxEv, symObjAddr: 0x38, symBinAddr: 0x100003918, symSize: 0x10 }
  - { offset: 0x3E336, size: 0x8, addend: 0x0, symName: __ZNSt6vectorIdSaIdEE8pop_backEv, symObjAddr: 0x494, symBinAddr: 0x100008068, symSize: 0x90 }
  - { offset: 0x3E3D1, size: 0x8, addend: 0x0, symName: __ZN4yvan4util11mesh_vectorEddd, symObjAddr: 0x178, symBinAddr: 0x100007EE8, symSize: 0x180 }
  - { offset: 0x43660, size: 0x8, addend: 0x0, symName: __ZSt12construct_atIN4yvan6option12OptionParamsEJS2_EQaant20is_unbounded_array_vIT_ErqXgsnwcvPvLi0E_S3_pispcl7declvalIT0_EEEEEPS3_S6_DpOS5_, symObjAddr: 0x1640, symBinAddr: 0x100009318, symSize: 0x8C }
  - { offset: 0x437A5, size: 0x8, addend: 0x0, symName: __ZSt19__relocate_object_aIN4yvan6option12OptionParamsES2_SaIS2_EEvPT_PT0_RT1_, symObjAddr: 0x1590, symBinAddr: 0x100009298, symSize: 0x80 }
  - { offset: 0x438D1, size: 0x8, addend: 0x0, symName: __ZNSt15__new_allocatorIN4yvan6option12OptionParamsEE8allocateEmPKv, symObjAddr: 0x14F8, symBinAddr: 0x100009200, symSize: 0x98 }
  - { offset: 0x43942, size: 0x8, addend: 0x0, symName: __ZNSt15__new_allocatorIN4yvan6option12OptionParamsEE10deallocateEPS2_m, symObjAddr: 0x14BC, symBinAddr: 0x1000091C4, symSize: 0x3C }
  - { offset: 0x43984, size: 0x8, addend: 0x0, symName: __ZSt14__relocate_a_1IPN4yvan6option12OptionParamsES3_SaIS2_EET0_T_S6_S5_RT1_, symObjAddr: 0x1444, symBinAddr: 0x10000914C, symSize: 0x78 }
  - { offset: 0x43A9C, size: 0x8, addend: 0x0, symName: __ZSt10destroy_atIN4yvan6option12OptionParamsEEvPT_, symObjAddr: 0x141C, symBinAddr: 0x100009138, symSize: 0x14 }
  - { offset: 0x43B14, size: 0x8, addend: 0x0, symName: __ZSt12__relocate_aIPN4yvan6option12OptionParamsES3_SaIS2_EET0_T_S6_S5_RT1_, symObjAddr: 0x13D0, symBinAddr: 0x1000090EC, symSize: 0x4C }
  - { offset: 0x43C7F, size: 0x8, addend: 0x0, symName: __ZNSt6vectorIN4yvan6option12OptionParamsESaIS2_EE12_Guard_allocD1Ev, symObjAddr: 0x1240, symBinAddr: 0x1000090A0, symSize: 0x4C }
  - { offset: 0x43CE2, size: 0x8, addend: 0x0, symName: __ZNSt6vectorIN4yvan6option12OptionParamsESaIS2_EE12_Guard_allocC1EPS2_mRSt12_Vector_baseIS2_S3_E, symObjAddr: 0x11FC, symBinAddr: 0x10000905C, symSize: 0x44 }
  - { offset: 0x43D2E, size: 0x8, addend: 0x0, symName: __ZSt12construct_atIN4yvan6option12OptionParamsEJRKS2_EQaant20is_unbounded_array_vIT_ErqXgsnwcvPvLi0E_S5_pispcl7declvalIT0_EEEEEPS5_S8_DpOS7_, symObjAddr: 0x1170, symBinAddr: 0x100008FD0, symSize: 0x8C }
  - { offset: 0x43DCE, size: 0x8, addend: 0x0, symName: __ZSt8_DestroyIPN4yvan6option12OptionParamsEEvT_S4_, symObjAddr: 0x1114, symBinAddr: 0x100008F74, symSize: 0x5C }
  - { offset: 0x43E75, size: 0x8, addend: 0x0, symName: __ZNSt6vectorIN4yvan6option12OptionParamsESaIS2_EE11_S_relocateEPS2_S5_S5_RS3_, symObjAddr: 0x10E0, symBinAddr: 0x100008F40, symSize: 0x34 }
  - { offset: 0x43ED1, size: 0x8, addend: 0x0, symName: __ZNSt12_Vector_baseIN4yvan6option12OptionParamsESaIS2_EE11_M_allocateEm, symObjAddr: 0x1008, symBinAddr: 0x100008E68, symSize: 0xD8 }
  - { offset: 0x43F75, size: 0x8, addend: 0x0, symName: __ZNKSt6vectorIN4yvan6option12OptionParamsESaIS2_EE8capacityEv, symObjAddr: 0xFB4, symBinAddr: 0x100008E14, symSize: 0x54 }
  - { offset: 0x43FE2, size: 0x8, addend: 0x0, symName: __ZNKSt6vectorIN4yvan6option12OptionParamsESaIS2_EE5emptyEv, symObjAddr: 0xED8, symBinAddr: 0x100008DBC, symSize: 0x58 }
  - { offset: 0x44072, size: 0x8, addend: 0x0, symName: __ZNSt6vectorIN4yvan6option12OptionParamsESaIS2_EE17_M_realloc_appendIJRKS2_EEEvDpOT_, symObjAddr: 0xCE0, symBinAddr: 0x100008BC4, symSize: 0x1F8 }
  - { offset: 0x442A0, size: 0x8, addend: 0x0, symName: __ZNSt6vectorIN4yvan6option12OptionParamsESaIS2_EE5beginEv, symObjAddr: 0xCB4, symBinAddr: 0x100008B98, symSize: 0x2C }
  - { offset: 0x442EF, size: 0x8, addend: 0x0, symName: __ZNSt6vectorIN4yvan6option12OptionParamsESaIS2_EE3endEv, symObjAddr: 0xC84, symBinAddr: 0x100008B68, symSize: 0x30 }
  - { offset: 0x44373, size: 0x8, addend: 0x0, symName: __ZNSt6vectorIN4yvan6option12OptionParamsESaIS2_EE11_S_max_sizeERKS3_, symObjAddr: 0xC08, symBinAddr: 0x100008B24, symSize: 0x44 }
  - { offset: 0x443BF, size: 0x8, addend: 0x0, symName: __ZNKSt12_Vector_baseIN4yvan6option12OptionParamsESaIS2_EE19_M_get_Tp_allocatorEv, symObjAddr: 0xBF4, symBinAddr: 0x100008B10, symSize: 0x14 }
  - { offset: 0x443E7, size: 0x8, addend: 0x0, symName: __ZNKSt6vectorIN4yvan6option12OptionParamsESaIS2_EE8max_sizeEv, symObjAddr: 0xBD4, symBinAddr: 0x100008AF0, symSize: 0x20 }
  - { offset: 0x4440F, size: 0x8, addend: 0x0, symName: __ZNKSt6vectorIN4yvan6option12OptionParamsESaIS2_EE12_M_check_lenEmPKc, symObjAddr: 0xB04, symBinAddr: 0x100008A20, symSize: 0xD0 }
  - { offset: 0x444E4, size: 0x8, addend: 0x0, symName: __ZNSt12_Vector_baseIN4yvan6option12OptionParamsESaIS2_EE19_M_get_Tp_allocatorEv, symObjAddr: 0xAB8, symBinAddr: 0x100008A0C, symSize: 0x14 }
  - { offset: 0x4450C, size: 0x8, addend: 0x0, symName: __ZNSt12_Vector_baseIN4yvan6option12OptionParamsESaIS2_EE13_M_deallocateEPS2_m, symObjAddr: 0xA2C, symBinAddr: 0x100008980, symSize: 0x8C }
  - { offset: 0x445D1, size: 0x8, addend: 0x0, symName: __ZNSt6vectorIN4yvan6option12OptionParamsESaIS2_EE7reserveEm, symObjAddr: 0x83C, symBinAddr: 0x100008814, symSize: 0x16C }
  - { offset: 0x44638, size: 0x8, addend: 0x0, symName: __ZNSt6vectorIN4yvan6option12OptionParamsESaIS2_EE4backEv, symObjAddr: 0x6A4, symBinAddr: 0x10000876C, symSize: 0xA8 }
  - { offset: 0x446E5, size: 0x8, addend: 0x0, symName: __ZNSt6vectorIN4yvan6option12OptionParamsESaIS2_EE9push_backERKS2_, symObjAddr: 0x614, symBinAddr: 0x1000086DC, symSize: 0x90 }
  - { offset: 0x44789, size: 0x8, addend: 0x0, symName: __ZNSt6vectorIN4yvan6option12OptionParamsESaIS2_EED1Ev, symObjAddr: 0x5B8, symBinAddr: 0x100008680, symSize: 0x5C }
  - { offset: 0x447F7, size: 0x8, addend: 0x0, symName: __ZNSt12_Vector_baseIN4yvan6option12OptionParamsESaIS2_EED2Ev, symObjAddr: 0x554, symBinAddr: 0x10000861C, symSize: 0x64 }
  - { offset: 0x44837, size: 0x8, addend: 0x0, symName: __ZN4yvan4util8sweep_2dERKNS_6option12OptionParamsEMS2_ddddS5_ddd, symObjAddr: 0x274, symBinAddr: 0x10000833C, symSize: 0x2E0 }
  - { offset: 0x44990, size: 0x8, addend: 0x0, symName: __ZN4yvan4util6Grid2DINS_6option12OptionParamsEED1Ev, symObjAddr: 0x254, symBinAddr: 0x10000831C, symSize: 0x20 }
  - { offset: 0x449B0, size: 0x8, addend: 0x0, symName: __ZN4yvan4util8sweep_1dERKNS_6option12OptionParamsEMS2_dddd, symObjAddr: 0x50, symBinAddr: 0x100008118, symSize: 0x204 }
  - { offset: 0x44AAA, size: 0x8, addend: 0x0, symName: __ZNSt12_Vector_baseIN4yvan6option12OptionParamsESaIS2_EE12_Vector_implD1Ev, symObjAddr: 0x30, symBinAddr: 0x1000080F8, symSize: 0x20 }
  - { offset: 0x44B08, size: 0x8, addend: 0x0, symName: __ZNK4yvan6option6Option10get_paramsEv, symObjAddr: 0x0, symBinAddr: 0x1000093A4, symSize: 0x40 }
  - { offset: 0x47120, size: 0x8, addend: 0x0, symName: __ZN4yvan4util12check_parityEddRKNS_6option14EuropeanOptionEd, symObjAddr: 0x2EC, symBinAddr: 0x100009690, symSize: 0x44 }
  - { offset: 0x4718D, size: 0x8, addend: 0x0, symName: __ZN4yvan4util12check_parityEddRKNS_6option12OptionParamsEd, symObjAddr: 0x258, symBinAddr: 0x1000095FC, symSize: 0x94 }
  - { offset: 0x4720E, size: 0x8, addend: 0x0, symName: __ZN4yvan4util13call_from_putEdRKNS_6option14EuropeanOptionE, symObjAddr: 0x21C, symBinAddr: 0x1000095C0, symSize: 0x3C }
  - { offset: 0x47255, size: 0x8, addend: 0x0, symName: __ZN4yvan4util13call_from_putEdRKNS_6option12OptionParamsE, symObjAddr: 0x14C, symBinAddr: 0x1000094F0, symSize: 0xD0 }
  - { offset: 0x472A9, size: 0x8, addend: 0x0, symName: __ZN4yvan4util13put_from_callEdRKNS_6option14EuropeanOptionE, symObjAddr: 0x110, symBinAddr: 0x1000094B4, symSize: 0x3C }
  - { offset: 0x472F0, size: 0x8, addend: 0x0, symName: __ZN4yvan4util13put_from_callEdRKNS_6option12OptionParamsE, symObjAddr: 0x40, symBinAddr: 0x1000093E4, symSize: 0xD0 }
  - { offset: 0x47353, size: 0x8, addend: 0x0, symName: __ZNK4yvan6option6Option10get_paramsEv, symObjAddr: 0x0, symBinAddr: 0x1000093A4, symSize: 0x40 }
  - { offset: 0x52202, size: 0x8, addend: 0x0, symName: __ZStL8__ioinit, symObjAddr: 0x85975, symBinAddr: 0x100024050, symSize: 0x0 }
  - { offset: 0x52C6F, size: 0x8, addend: 0x0, symName: __ZL60global_EuropeanOption_Constructors_Getters_Setters_registrar, symObjAddr: 0x85976, symBinAddr: 0x100024051, symSize: 0x0 }
  - { offset: 0x52CB0, size: 0x8, addend: 0x0, symName: __ZL52global_EuropeanOption_Assignment_Operators_registrar, symObjAddr: 0x85977, symBinAddr: 0x100024052, symSize: 0x0 }
  - { offset: 0x52CF1, size: 0x8, addend: 0x0, symName: __ZL47global_EuropeanOption_Payoff_Function_registrar, symObjAddr: 0x85978, symBinAddr: 0x100024053, symSize: 0x0 }
  - { offset: 0x52D32, size: 0x8, addend: 0x0, symName: __ZL56global_BSEngine_Price_Function_EuropeanOptions_registrar, symObjAddr: 0x85979, symBinAddr: 0x100024054, symSize: 0x0 }
  - { offset: 0x52D73, size: 0x8, addend: 0x0, symName: __ZL38global_Util_Parity_Functions_registrar, symObjAddr: 0x8597A, symBinAddr: 0x100024055, symSize: 0x0 }
  - { offset: 0x52DB7, size: 0x8, addend: 0x0, symName: __ZL48global_Util_Grid2D_Basic_Functionality_registrar, symObjAddr: 0x8597B, symBinAddr: 0x100024056, symSize: 0x0 }
  - { offset: 0x52F17, size: 0x8, addend: 0x0, symName: __ZL45global_sweep_1d_basic_functionality_registrar, symObjAddr: 0x8597C, symBinAddr: 0x100024057, symSize: 0x0 }
  - { offset: 0x52F66, size: 0x8, addend: 0x0, symName: __ZL45global_sweep_2d_basic_functionality_registrar, symObjAddr: 0x8597D, symBinAddr: 0x100024058, symSize: 0x0 }
  - { offset: 0x52FAA, size: 0x8, addend: 0x0, symName: __ZL58global_BSEngine_Price_Function_1D_Parameter_Grid_registrar, symObjAddr: 0x8597E, symBinAddr: 0x100024059, symSize: 0x0 }
  - { offset: 0x52FEE, size: 0x8, addend: 0x0, symName: __ZL58global_BSEngine_Price_Function_2D_Parameter_Grid_registrar, symObjAddr: 0x8597F, symBinAddr: 0x10002405A, symSize: 0x0 }
  - { offset: 0x53032, size: 0x8, addend: 0x0, symName: __ZL38global_BSEngineGreeks_Basics_registrar, symObjAddr: 0x85980, symBinAddr: 0x10002405B, symSize: 0x0 }
  - { offset: 0x53076, size: 0x8, addend: 0x0, symName: __ZL48global_BSEngineGreeks_Delta_Range_of_S_registrar, symObjAddr: 0x85981, symBinAddr: 0x10002405C, symSize: 0x0 }
  - { offset: 0x530BA, size: 0x8, addend: 0x0, symName: __ZL55global_BSEngineGreeks_Delta_2D_Parameter_Grid_registrar, symObjAddr: 0x85982, symBinAddr: 0x10002405D, symSize: 0x0 }
  - { offset: 0x530FE, size: 0x8, addend: 0x0, symName: __ZL55global_BSEngineGreeks_Gamma_2D_Parameter_Grid_registrar, symObjAddr: 0x85983, symBinAddr: 0x10002405E, symSize: 0x0 }
  - { offset: 0x53142, size: 0x8, addend: 0x0, symName: __ZL62global_NumericalEngineGreeks_Delta_Finite_Difference_registrar, symObjAddr: 0x85984, symBinAddr: 0x10002405F, symSize: 0x0 }
  - { offset: 0x53186, size: 0x8, addend: 0x0, symName: __ZL72global_Precision_with_Varying_h_in_NumericalEngineGreeks_Delta_registrar, symObjAddr: 0x85985, symBinAddr: 0x100024060, symSize: 0x0 }
  - { offset: 0x531E0, size: 0x8, addend: 0x0, symName: __ZL80global_NumericalEngineGreeks_Gamma_Finite_Difference_vs_BSEngineGreeks_registrar, symObjAddr: 0x85986, symBinAddr: 0x100024061, symSize: 0x0 }
  - { offset: 0x53224, size: 0x8, addend: 0x0, symName: __ZL69global_PerpetualAmericanOption_Constructors_Getters_Setters_registrar, symObjAddr: 0x85987, symBinAddr: 0x100024062, symSize: 0x0 }
  - { offset: 0x53268, size: 0x8, addend: 0x0, symName: __ZL58global_PerpetualAmericanEngine_Price_Calculation_registrar, symObjAddr: 0x85988, symBinAddr: 0x100024063, symSize: 0x0 }
  - { offset: 0x532AC, size: 0x8, addend: 0x0, symName: __ZL64global_PerpetualAmericanEngine_Price_1D_Parameter_Grid_registrar, symObjAddr: 0x85989, symBinAddr: 0x100024064, symSize: 0x0 }
  - { offset: 0x532F0, size: 0x8, addend: 0x0, symName: __ZL64global_PerpetualAmericanEngine_Price_2D_Parameter_Grid_registrar, symObjAddr: 0x8598A, symBinAddr: 0x100024065, symSize: 0x0 }
  - { offset: 0x5350F, size: 0x8, addend: 0x0, symName: __GLOBAL__sub_I_test_cases_01.cpp, symObjAddr: 0xDE60, symBinAddr: 0x1000119CC, symSize: 0x14 }
  - { offset: 0x53527, size: 0x8, addend: 0x0, symName: __Z41__static_initialization_and_destruction_0v, symObjAddr: 0xDD28, symBinAddr: 0x100011894, symSize: 0x138 }
  - { offset: 0x5353E, size: 0x8, addend: 0x0, symName: __ZSt9__fill_a1IPiiEvT_S1_RKT0_, symObjAddr: 0xB2EC, symBinAddr: 0x100011834, symSize: 0x60 }
  - { offset: 0x53682, size: 0x8, addend: 0x0, symName: __ZSt12construct_atIiJEQaant20is_unbounded_array_vIT_ErqXgsnwcvPvLi0E_S0_pispcl7declvalIT0_EEEEEPS0_S3_DpOS2_, symObjAddr: 0xB230, symBinAddr: 0x1000117D8, symSize: 0x5C }
  - { offset: 0x536D2, size: 0x8, addend: 0x0, symName: __ZNSt15__new_allocatorIiE8allocateEmPKv, symObjAddr: 0xB1B4, symBinAddr: 0x10001175C, symSize: 0x7C }
  - { offset: 0x537CA, size: 0x8, addend: 0x0, symName: __ZNSt19_UninitDestroyGuardIPivE7releaseEv, symObjAddr: 0xB13C, symBinAddr: 0x100011740, symSize: 0x1C }
  - { offset: 0x537EE, size: 0x8, addend: 0x0, symName: __ZSt10_ConstructIiJEEvPT_DpOT0_, symObjAddr: 0xB0D8, symBinAddr: 0x1000116DC, symSize: 0x64 }
  - { offset: 0x5385F, size: 0x8, addend: 0x0, symName: __ZNSt19_UninitDestroyGuardIPivED1Ev, symObjAddr: 0xB080, symBinAddr: 0x100011684, symSize: 0x58 }
  - { offset: 0x5389F, size: 0x8, addend: 0x0, symName: __ZSt19__relocate_object_aIN4yvan4test8TestCaseES2_SaIS2_EEvPT_PT0_RT1_, symObjAddr: 0xB000, symBinAddr: 0x100011604, symSize: 0x80 }
  - { offset: 0x539CB, size: 0x8, addend: 0x0, symName: __ZNSt15__new_allocatorIN4yvan4test8TestCaseEE8allocateEmPKv, symObjAddr: 0xAF84, symBinAddr: 0x100011588, symSize: 0x7C }
  - { offset: 0x53A3C, size: 0x8, addend: 0x0, symName: __ZNSt15__new_allocatorIiE10deallocateEPim, symObjAddr: 0xAE50, symBinAddr: 0x100011558, symSize: 0x30 }
  - { offset: 0x53A7E, size: 0x8, addend: 0x0, symName: __ZNSt27__uninitialized_default_n_1ILb1EE18__uninit_default_nIPimEET_S3_T0_, symObjAddr: 0xAD5C, symBinAddr: 0x100011464, symSize: 0xF4 }
  - { offset: 0x53BD5, size: 0x8, addend: 0x0, symName: __ZNSt27__uninitialized_default_n_1ILb0EE18__uninit_default_nIPimEET_S3_T0_, symObjAddr: 0xACE0, symBinAddr: 0x1000113E8, symSize: 0x7C }
  - { offset: 0x53C79, size: 0x8, addend: 0x0, symName: __ZNSt19_UninitDestroyGuardIPivEC1ERS0_, symObjAddr: 0xACAC, symBinAddr: 0x1000113B4, symSize: 0x34 }
  - { offset: 0x53CC2, size: 0x8, addend: 0x0, symName: __ZSt14__relocate_a_1IPN4yvan4test8TestCaseES3_SaIS2_EET0_T_S6_S5_RT1_, symObjAddr: 0xAC34, symBinAddr: 0x10001133C, symSize: 0x78 }
  - { offset: 0x53DF2, size: 0x8, addend: 0x0, symName: __ZSt25__uninitialized_default_nIPimET_S1_T0_, symObjAddr: 0xA9CC, symBinAddr: 0x1000112EC, symSize: 0x50 }
  - { offset: 0x53E50, size: 0x8, addend: 0x0, symName: __ZNSt12_Vector_baseIiSaIiEE11_M_allocateEm, symObjAddr: 0xA908, symBinAddr: 0x100011228, symSize: 0xC4 }
  - { offset: 0x53F0C, size: 0x8, addend: 0x0, symName: __ZNSt12_Vector_baseIiSaIiEE17_Vector_impl_dataC2Ev, symObjAddr: 0xA8DC, symBinAddr: 0x1000111FC, symSize: 0x2C }
  - { offset: 0x53F49, size: 0x8, addend: 0x0, symName: __ZNSt9_Any_data9_M_accessIPFbvEEERT_v, symObjAddr: 0xA8C0, symBinAddr: 0x1000111E0, symSize: 0x1C }
  - { offset: 0x53F7C, size: 0x8, addend: 0x0, symName: __ZNSt14_Function_base13_Base_managerIPFbvEE9_M_createIRKS2_EEvRSt9_Any_dataOT_St17integral_constantIbLb1EE, symObjAddr: 0xA854, symBinAddr: 0x100011174, symSize: 0x6C }
  - { offset: 0x54007, size: 0x8, addend: 0x0, symName: __ZSt12__relocate_aIPN4yvan4test8TestCaseES3_SaIS2_EET0_T_S6_S5_RT1_, symObjAddr: 0xA808, symBinAddr: 0x100011128, symSize: 0x4C }
  - { offset: 0x5412A, size: 0x8, addend: 0x0, symName: __ZNSt8functionIFbvEEC1EOS1_, symObjAddr: 0xA784, symBinAddr: 0x1000110A4, symSize: 0x84 }
  - { offset: 0x54152, size: 0x8, addend: 0x0, symName: __ZSt10destroy_atIN4yvan4test8TestCaseEEvPT_, symObjAddr: 0xA764, symBinAddr: 0x100011084, symSize: 0x20 }
  - { offset: 0x54186, size: 0x8, addend: 0x0, symName: __ZNSt15__new_allocatorIN4yvan4test8TestCaseEE10deallocateEPS2_m, symObjAddr: 0xA734, symBinAddr: 0x100011054, symSize: 0x30 }
  - { offset: 0x541C8, size: 0x8, addend: 0x0, symName: __ZSt10destroy_atIiEvPT_, symObjAddr: 0xA610, symBinAddr: 0x100011040, symSize: 0x14 }
  - { offset: 0x54242, size: 0x8, addend: 0x0, symName: __ZSt27__uninitialized_default_n_aIPimiET_S1_T0_RSaIT1_E, symObjAddr: 0xA5E8, symBinAddr: 0x100011018, symSize: 0x28 }
  - { offset: 0x542A1, size: 0x8, addend: 0x0, symName: __ZNSt12_Vector_baseIiSaIiEE17_M_create_storageEm, symObjAddr: 0xA588, symBinAddr: 0x100010FB8, symSize: 0x60 }
  - { offset: 0x542FD, size: 0x8, addend: 0x0, symName: __ZNSt12_Vector_baseIiSaIiEE12_Vector_implC1ERKS0_, symObjAddr: 0xA53C, symBinAddr: 0x100010F6C, symSize: 0x4C }
  - { offset: 0x54399, size: 0x8, addend: 0x0, symName: __ZNSt6vectorIiSaIiEE11_S_max_sizeERKS0_, symObjAddr: 0xA508, symBinAddr: 0x100010F38, symSize: 0x34 }
  - { offset: 0x543E1, size: 0x8, addend: 0x0, symName: __ZNSt14_Function_base13_Base_managerIPFbvEE10_M_destroyERSt9_Any_dataSt17integral_constantIbLb1EE, symObjAddr: 0xA4E4, symBinAddr: 0x100010F14, symSize: 0x24 }
  - { offset: 0x54410, size: 0x8, addend: 0x0, symName: __ZNSt14_Function_base13_Base_managerIPFbvEE15_M_init_functorIRKS2_EEvRSt9_Any_dataOT_, symObjAddr: 0xA4B0, symBinAddr: 0x100010EE0, symSize: 0x34 }
  - { offset: 0x54471, size: 0x8, addend: 0x0, symName: __ZSt13__invoke_implIbRPFbvEJEET_St14__invoke_otherOT0_DpOT1_, symObjAddr: 0xA484, symBinAddr: 0x100010EB4, symSize: 0x2C }
  - { offset: 0x54529, size: 0x8, addend: 0x0, symName: __ZNKSt9_Any_data9_M_accessIPFbvEEERKT_v, symObjAddr: 0xA468, symBinAddr: 0x100010E98, symSize: 0x1C }
  - { offset: 0x5458F, size: 0x8, addend: 0x0, symName: __ZNKSt6vectorIN4yvan4test8TestCaseESaIS2_EE5emptyEv, symObjAddr: 0xA410, symBinAddr: 0x100010E40, symSize: 0x58 }
  - { offset: 0x5461B, size: 0x8, addend: 0x0, symName: __ZNSt6vectorIN4yvan4test8TestCaseESaIS2_EE11_S_relocateEPS2_S5_S5_RS3_, symObjAddr: 0xA3DC, symBinAddr: 0x100010E0C, symSize: 0x34 }
  - { offset: 0x546AB, size: 0x8, addend: 0x0, symName: __ZNSt6vectorIN4yvan4test8TestCaseESaIS2_EE12_Guard_allocD1Ev, symObjAddr: 0xA390, symBinAddr: 0x100010DC0, symSize: 0x4C }
  - { offset: 0x5470E, size: 0x8, addend: 0x0, symName: __ZNSt6vectorIN4yvan4test8TestCaseESaIS2_EE12_Guard_allocC1EPS2_mRSt12_Vector_baseIS2_S3_E, symObjAddr: 0xA34C, symBinAddr: 0x100010D7C, symSize: 0x44 }
  - { offset: 0x5474A, size: 0x8, addend: 0x0, symName: __ZNSt12_Vector_baseIN4yvan4test8TestCaseESaIS2_EE11_M_allocateEm, symObjAddr: 0xA288, symBinAddr: 0x100010CB8, symSize: 0xC4 }
  - { offset: 0x54804, size: 0x8, addend: 0x0, symName: __ZSt12construct_atIN4yvan4test8TestCaseEJS2_EQaant20is_unbounded_array_vIT_ErqXgsnwcvPvLi0E_S3_pispcl7declvalIT0_EEEEEPS3_S6_DpOS5_, symObjAddr: 0xA214, symBinAddr: 0x100010C44, symSize: 0x74 }
  - { offset: 0x548A7, size: 0x8, addend: 0x0, symName: __ZN4yvan4test8TestCaseC1EOS1_, symObjAddr: 0xA1D0, symBinAddr: 0x100010C00, symSize: 0x44 }
  - { offset: 0x548CF, size: 0x8, addend: 0x0, symName: __ZSt8_DestroyIN4yvan4test8TestCaseEEvPT_, symObjAddr: 0xA1B0, symBinAddr: 0x100010BE0, symSize: 0x20 }
  - { offset: 0x54987, size: 0x8, addend: 0x0, symName: __ZSt10_ConstructIdJRKdEEvPT_DpOT0_, symObjAddr: 0x9E94, symBinAddr: 0x100010B58, symSize: 0x88 }
  - { offset: 0x54A50, size: 0x8, addend: 0x0, symName: __ZNKSt6vectorIiSaIiEE4sizeEv, symObjAddr: 0x9D14, symBinAddr: 0x100010B18, symSize: 0x40 }
  - { offset: 0x54A84, size: 0x8, addend: 0x0, symName: __ZSt8_DestroyIPiEvT_S1_, symObjAddr: 0x9CB8, symBinAddr: 0x100010ABC, symSize: 0x5C }
  - { offset: 0x54B01, size: 0x8, addend: 0x0, symName: __ZNSt12_Vector_baseIiSaIiEE13_M_deallocateEPim, symObjAddr: 0x9C2C, symBinAddr: 0x100010A30, symSize: 0x8C }
  - { offset: 0x54BC6, size: 0x8, addend: 0x0, symName: __ZNSt6vectorIiSaIiEE21_M_default_initializeEm, symObjAddr: 0x9BDC, symBinAddr: 0x1000109E0, symSize: 0x50 }
  - { offset: 0x54C30, size: 0x8, addend: 0x0, symName: __ZNSt12_Vector_baseIiSaIiEEC2EmRKS0_, symObjAddr: 0x9B88, symBinAddr: 0x10001098C, symSize: 0x54 }
  - { offset: 0x54C60, size: 0x8, addend: 0x0, symName: __ZNSt6vectorIiSaIiEE17_S_check_init_lenEmRKS0_, symObjAddr: 0x9B14, symBinAddr: 0x100010918, symSize: 0x74 }
  - { offset: 0x54D1C, size: 0x8, addend: 0x0, symName: __ZNSt14_Function_base13_Base_managerIPFbvEE10_M_managerERSt9_Any_dataRKS4_St18_Manager_operation, symObjAddr: 0x9A58, symBinAddr: 0x10001085C, symSize: 0xBC }
  - { offset: 0x54D6B, size: 0x8, addend: 0x0, symName: __ZNSt9_Any_data9_M_accessIPPFbvEEERT_v, symObjAddr: 0x9A3C, symBinAddr: 0x100010840, symSize: 0x1C }
  - { offset: 0x54DA2, size: 0x8, addend: 0x0, symName: __ZNSt9_Any_data9_M_accessIPKSt9type_infoEERT_v, symObjAddr: 0x9A20, symBinAddr: 0x100010824, symSize: 0x1C }
  - { offset: 0x54DCF, size: 0x8, addend: 0x0, symName: __ZSt10__invoke_rIbRPFbvEJEENSt9enable_ifIX16is_invocable_r_vIT_T0_JDpT1_EEES4_E4typeEOS5_DpOS6_, symObjAddr: 0x99F4, symBinAddr: 0x1000107F8, symSize: 0x2C }
  - { offset: 0x54E37, size: 0x8, addend: 0x0, symName: __ZNSt14_Function_base13_Base_managerIPFbvEE14_M_get_pointerERKSt9_Any_data, symObjAddr: 0x99C8, symBinAddr: 0x1000107CC, symSize: 0x2C }
  - { offset: 0x54EA7, size: 0x8, addend: 0x0, symName: __ZNSt14_Function_base13_Base_managerIPFbvEE9_M_createIRS1_EEvRSt9_Any_dataOT_St17integral_constantIbLb1EE, symObjAddr: 0x9960, symBinAddr: 0x100010764, symSize: 0x68 }
  - { offset: 0x54F14, size: 0x8, addend: 0x0, symName: __ZNSt6vectorIN4yvan4test8TestCaseESaIS2_EE4backEv, symObjAddr: 0x98C4, symBinAddr: 0x1000106C8, symSize: 0x9C }
  - { offset: 0x54FC1, size: 0x8, addend: 0x0, symName: __ZNSt6vectorIN4yvan4test8TestCaseESaIS2_EE17_M_realloc_appendIJS2_EEEvDpOT_, symObjAddr: 0x9714, symBinAddr: 0x100010518, symSize: 0x1B0 }
  - { offset: 0x551EF, size: 0x8, addend: 0x0, symName: __ZNSt6vectorIN4yvan4test8TestCaseESaIS2_EE5beginEv, symObjAddr: 0x96E8, symBinAddr: 0x1000104EC, symSize: 0x2C }
  - { offset: 0x5523E, size: 0x8, addend: 0x0, symName: __ZNSt6vectorIN4yvan4test8TestCaseESaIS2_EE3endEv, symObjAddr: 0x96B8, symBinAddr: 0x1000104BC, symSize: 0x30 }
  - { offset: 0x552C2, size: 0x8, addend: 0x0, symName: __ZNSt6vectorIN4yvan4test8TestCaseESaIS2_EE11_S_max_sizeERKS3_, symObjAddr: 0x9684, symBinAddr: 0x100010488, symSize: 0x34 }
  - { offset: 0x5530E, size: 0x8, addend: 0x0, symName: __ZNKSt12_Vector_baseIN4yvan4test8TestCaseESaIS2_EE19_M_get_Tp_allocatorEv, symObjAddr: 0x9670, symBinAddr: 0x100010474, symSize: 0x14 }
  - { offset: 0x55336, size: 0x8, addend: 0x0, symName: __ZNKSt6vectorIN4yvan4test8TestCaseESaIS2_EE8max_sizeEv, symObjAddr: 0x9650, symBinAddr: 0x100010454, symSize: 0x20 }
  - { offset: 0x5535E, size: 0x8, addend: 0x0, symName: __ZNKSt6vectorIN4yvan4test8TestCaseESaIS2_EE12_M_check_lenEmPKc, symObjAddr: 0x9580, symBinAddr: 0x100010384, symSize: 0xD0 }
  - { offset: 0x553B6, size: 0x8, addend: 0x0, symName: __ZNKSt6vectorIN4yvan4test8TestCaseESaIS2_EE4sizeEv, symObjAddr: 0x9540, symBinAddr: 0x100010344, symSize: 0x40 }
  - { offset: 0x55465, size: 0x8, addend: 0x0, symName: __ZSt8_DestroyIPN4yvan4test8TestCaseEEvT_S4_, symObjAddr: 0x94F0, symBinAddr: 0x1000102F4, symSize: 0x50 }
  - { offset: 0x55516, size: 0x8, addend: 0x0, symName: __ZSt18uninitialized_copyIPKdPdET0_T_S4_S3_, symObjAddr: 0x8E38, symBinAddr: 0x100010278, symSize: 0x7C }
  - { offset: 0x555E5, size: 0x8, addend: 0x0, symName: __ZSt16__do_uninit_copyIPKdS1_PdET1_T_T0_S3_, symObjAddr: 0x8DB0, symBinAddr: 0x1000101F0, symSize: 0x88 }
  - { offset: 0x5567A, size: 0x8, addend: 0x0, symName: __ZNSt6vectorIN4yvan6option12OptionParamsESaIS2_EEixEm, symObjAddr: 0x8CEC, symBinAddr: 0x100010160, symSize: 0x90 }
  - { offset: 0x556CF, size: 0x8, addend: 0x0, symName: __ZNSt6vectorIiSaIiEEixEm, symObjAddr: 0x8BD0, symBinAddr: 0x1000100DC, symSize: 0x84 }
  - { offset: 0x5575A, size: 0x8, addend: 0x0, symName: __ZNSt12_Vector_baseIiSaIiEE19_M_get_Tp_allocatorEv, symObjAddr: 0x8BBC, symBinAddr: 0x1000100C8, symSize: 0x14 }
  - { offset: 0x5579A, size: 0x8, addend: 0x0, symName: __ZNSt12_Vector_baseIiSaIiEED2Ev, symObjAddr: 0x8B6C, symBinAddr: 0x100010078, symSize: 0x50 }
  - { offset: 0x557DA, size: 0x8, addend: 0x0, symName: __ZNSt12_Vector_baseIiSaIiEE12_Vector_implD1Ev, symObjAddr: 0x8B4C, symBinAddr: 0x100010058, symSize: 0x20 }
  - { offset: 0x55852, size: 0x8, addend: 0x0, symName: __ZNSt6vectorIiSaIiEEC1EmRKS0_, symObjAddr: 0x8AE4, symBinAddr: 0x10000FFF0, symSize: 0x68 }
  - { offset: 0x558AA, size: 0x8, addend: 0x0, symName: __ZNSt17_Function_handlerIFbvEPS0_E10_M_managerERSt9_Any_dataRKS3_St18_Manager_operation, symObjAddr: 0x8A60, symBinAddr: 0x10000FF6C, symSize: 0x84 }
  - { offset: 0x558F2, size: 0x8, addend: 0x0, symName: __ZNSt17_Function_handlerIFbvEPS0_E9_M_invokeERKSt9_Any_data, symObjAddr: 0x8A40, symBinAddr: 0x10000FF4C, symSize: 0x20 }
  - { offset: 0x5591A, size: 0x8, addend: 0x0, symName: __ZNSt14_Function_base13_Base_managerIPFbvEE15_M_init_functorIRS1_EEvRSt9_Any_dataOT_, symObjAddr: 0x8A0C, symBinAddr: 0x10000FF18, symSize: 0x34 }
  - { offset: 0x5599D, size: 0x8, addend: 0x0, symName: __ZNSt14_Function_base13_Base_managerIPFbvEE21_M_not_empty_functionIS1_EEbPT_, symObjAddr: 0x89EC, symBinAddr: 0x10000FEF8, symSize: 0x20 }
  - { offset: 0x559F2, size: 0x8, addend: 0x0, symName: __ZNSt6vectorIN4yvan4test8TestCaseESaIS2_EE12emplace_backIJS2_EEERS2_DpOT_, symObjAddr: 0x8944, symBinAddr: 0x10000FE50, symSize: 0xA8 }
  - { offset: 0x55AF1, size: 0x8, addend: 0x0, symName: __ZNKSt8functionIFbvEEcvbEv, symObjAddr: 0x8920, symBinAddr: 0x10000FE2C, symSize: 0x24 }
  - { offset: 0x55B19, size: 0x8, addend: 0x0, symName: __ZNSt7__cxx1112basic_stringIcSt11char_traitsIcESaIcEE12_M_constructILb1EEEvPKcm, symObjAddr: 0x8840, symBinAddr: 0x10000FD4C, symSize: 0xE0 }
  - { offset: 0x55BF8, size: 0x8, addend: 0x0, symName: __ZNSt12_Vector_baseIN4yvan4test8TestCaseESaIS2_EE19_M_get_Tp_allocatorEv, symObjAddr: 0x882C, symBinAddr: 0x10000FD38, symSize: 0x14 }
  - { offset: 0x55C20, size: 0x8, addend: 0x0, symName: __ZNSt12_Vector_baseIN4yvan4test8TestCaseESaIS2_EE13_M_deallocateEPS2_m, symObjAddr: 0x87A0, symBinAddr: 0x10000FCAC, symSize: 0x8C }
  - { offset: 0x55D0F, size: 0x8, addend: 0x0, symName: __ZSt22__uninitialized_copy_aIPKdS1_PddET1_T_T0_S3_RSaIT2_E, symObjAddr: 0x7D98, symBinAddr: 0x10000FC4C, symSize: 0x60 }
  - { offset: 0x55DED, size: 0x8, addend: 0x0, symName: __ZN4yvan4util6Grid2DINS_6option12OptionParamsEEclEmm, symObjAddr: 0x7CD0, symBinAddr: 0x10000FC08, symSize: 0x44 }
  - { offset: 0x55E47, size: 0x8, addend: 0x0, symName: __ZN4yvan4util6Grid2DIiEclEmm, symObjAddr: 0x7BD4, symBinAddr: 0x10000FBC4, symSize: 0x44 }
  - { offset: 0x55EA5, size: 0x8, addend: 0x0, symName: __ZNSt6vectorIiSaIiEED1Ev, symObjAddr: 0x7B78, symBinAddr: 0x10000FB68, symSize: 0x5C }
  - { offset: 0x55F2B, size: 0x8, addend: 0x0, symName: __ZN4yvan4util6Grid2DIiEC1Emm, symObjAddr: 0x7B08, symBinAddr: 0x10000FAF8, symSize: 0x70 }
  - { offset: 0x55FF5, size: 0x8, addend: 0x0, symName: __ZNSt8functionIFbvEEC1IRS0_vEEOT_, symObjAddr: 0x7A88, symBinAddr: 0x10000FA78, symSize: 0x80 }
  - { offset: 0x5606F, size: 0x8, addend: 0x0, symName: __ZNKSt6vectorIN4yvan4test8TestCaseESaIS2_EE3endEv, symObjAddr: 0x79BC, symBinAddr: 0x10000FA48, symSize: 0x30 }
  - { offset: 0x560BE, size: 0x8, addend: 0x0, symName: __ZNKSt6vectorIN4yvan4test8TestCaseESaIS2_EE5beginEv, symObjAddr: 0x7990, symBinAddr: 0x10000FA1C, symSize: 0x2C }
  - { offset: 0x5610D, size: 0x8, addend: 0x0, symName: __ZNSt6vectorIN4yvan4test8TestCaseESaIS2_EE9push_backEOS2_, symObjAddr: 0x795C, symBinAddr: 0x10000F9E8, symSize: 0x34 }
  - { offset: 0x5618C, size: 0x8, addend: 0x0, symName: __ZNSt8functionIFbvEEC1ERKS1_, symObjAddr: 0x78B8, symBinAddr: 0x10000F944, symSize: 0xA4 }
  - { offset: 0x561D0, size: 0x8, addend: 0x0, symName: __ZNSt14_Function_baseC2Ev, symObjAddr: 0x7894, symBinAddr: 0x10000F920, symSize: 0x24 }
  - { offset: 0x56219, size: 0x8, addend: 0x0, symName: __ZNSt7__cxx1112basic_stringIcSt11char_traitsIcESaIcEEC1ERKS4_, symObjAddr: 0x77CC, symBinAddr: 0x10000F858, symSize: 0xC8 }
  - { offset: 0x56316, size: 0x8, addend: 0x0, symName: __ZNSt6vectorIN4yvan4test8TestCaseESaIS2_EED1Ev, symObjAddr: 0x7770, symBinAddr: 0x10000F7FC, symSize: 0x5C }
  - { offset: 0x56384, size: 0x8, addend: 0x0, symName: __ZNSt12_Vector_baseIN4yvan4test8TestCaseESaIS2_EED2Ev, symObjAddr: 0x7720, symBinAddr: 0x10000F7AC, symSize: 0x50 }
  - { offset: 0x563BC, size: 0x8, addend: 0x0, symName: __ZNKSt7__cxx1112basic_stringIcSt11char_traitsIcESaIcEE16_M_get_allocatorEv, symObjAddr: 0x72C8, symBinAddr: 0x10000F798, symSize: 0x14 }
  - { offset: 0x56409, size: 0x8, addend: 0x0, symName: __ZNSt7__cxx1112basic_stringIcSt11char_traitsIcESaIcEEC1EOS4_, symObjAddr: 0x7130, symBinAddr: 0x10000F600, symSize: 0x198 }
  - { offset: 0x56506, size: 0x8, addend: 0x0, symName: __Z47PerpetualAmericanEngine_Price_2D_Parameter_Gridv, symObjAddr: 0x6BF8, symBinAddr: 0x10000F2B4, symSize: 0x34C }
  - { offset: 0x5676D, size: 0x8, addend: 0x0, symName: __ZN57PerpetualAmericanEngine_Price_2D_Parameter_Grid_registrarC1Ev, symObjAddr: 0x6B54, symBinAddr: 0x10000F210, symSize: 0xA4 }
  - { offset: 0x5681A, size: 0x8, addend: 0x0, symName: __Z47PerpetualAmericanEngine_Price_1D_Parameter_Gridv, symObjAddr: 0x67A8, symBinAddr: 0x10000EE64, symSize: 0x3AC }
  - { offset: 0x56A66, size: 0x8, addend: 0x0, symName: __ZN57PerpetualAmericanEngine_Price_1D_Parameter_Grid_registrarC1Ev, symObjAddr: 0x65B4, symBinAddr: 0x10000EDC0, symSize: 0xA4 }
  - { offset: 0x56B13, size: 0x8, addend: 0x0, symName: __Z41PerpetualAmericanEngine_Price_Calculationv, symObjAddr: 0x6358, symBinAddr: 0x10000EB64, symSize: 0x25C }
  - { offset: 0x56CAD, size: 0x8, addend: 0x0, symName: __ZN51PerpetualAmericanEngine_Price_Calculation_registrarC1Ev, symObjAddr: 0x6280, symBinAddr: 0x10000EAC0, symSize: 0xA4 }
  - { offset: 0x56D5A, size: 0x8, addend: 0x0, symName: __Z52PerpetualAmericanOption_Constructors_Getters_Settersv, symObjAddr: 0x5CC0, symBinAddr: 0x10000E500, symSize: 0x5C0 }
  - { offset: 0x57253, size: 0x8, addend: 0x0, symName: __ZN4yvan6option23PerpetualAmericanOptionC1EOS1_, symObjAddr: 0x5C84, symBinAddr: 0x10000E4C4, symSize: 0x3C }
  - { offset: 0x572A3, size: 0x8, addend: 0x0, symName: __ZN4yvan6option23PerpetualAmericanOptionC1ERKS1_, symObjAddr: 0x5C48, symBinAddr: 0x10000E488, symSize: 0x3C }
  - { offset: 0x572E7, size: 0x8, addend: 0x0, symName: __ZN62PerpetualAmericanOption_Constructors_Getters_Setters_registrarC1Ev, symObjAddr: 0x5B48, symBinAddr: 0x10000E3E4, symSize: 0xA4 }
  - { offset: 0x57394, size: 0x8, addend: 0x0, symName: __Z63NumericalEngineGreeks_Gamma_Finite_Difference_vs_BSEngineGreeksv, symObjAddr: 0x58E0, symBinAddr: 0x10000E17C, symSize: 0x268 }
  - { offset: 0x5752A, size: 0x8, addend: 0x0, symName: __ZN73NumericalEngineGreeks_Gamma_Finite_Difference_vs_BSEngineGreeks_registrarC1Ev, symObjAddr: 0x583C, symBinAddr: 0x10000E0D8, symSize: 0xA4 }
  - { offset: 0x575D7, size: 0x8, addend: 0x0, symName: __Z55Precision_with_Varying_h_in_NumericalEngineGreeks_Deltav, symObjAddr: 0x5538, symBinAddr: 0x10000DDD4, symSize: 0x304 }
  - { offset: 0x57912, size: 0x8, addend: 0x0, symName: __ZNSt6vectorIdSaIdEE21_M_range_initialize_nIPKdS4_EEvT_T0_m, symObjAddr: 0x5308, symBinAddr: 0x10000DD24, symSize: 0xB0 }
  - { offset: 0x579AB, size: 0x8, addend: 0x0, symName: __ZNKSt16initializer_listIdE4sizeEv, symObjAddr: 0x52F0, symBinAddr: 0x10000DD0C, symSize: 0x18 }
  - { offset: 0x579D3, size: 0x8, addend: 0x0, symName: __ZNKSt16initializer_listIdE3endEv, symObjAddr: 0x52B8, symBinAddr: 0x10000DCD4, symSize: 0x38 }
  - { offset: 0x579FB, size: 0x8, addend: 0x0, symName: __ZNKSt16initializer_listIdE5beginEv, symObjAddr: 0x52A0, symBinAddr: 0x10000DCBC, symSize: 0x18 }
  - { offset: 0x57A48, size: 0x8, addend: 0x0, symName: __ZNSt12_Vector_baseIdSaIdEEC2ERKS0_, symObjAddr: 0x522C, symBinAddr: 0x10000DC94, symSize: 0x28 }
  - { offset: 0x57AA6, size: 0x8, addend: 0x0, symName: __ZNSt6vectorIdSaIdEEC1ESt16initializer_listIdERKS0_, symObjAddr: 0x51B0, symBinAddr: 0x10000DC18, symSize: 0x7C }
  - { offset: 0x57AF2, size: 0x8, addend: 0x0, symName: __ZN65Precision_with_Varying_h_in_NumericalEngineGreeks_Delta_registrarC1Ev, symObjAddr: 0x510C, symBinAddr: 0x10000DB74, symSize: 0xA4 }
  - { offset: 0x57B9F, size: 0x8, addend: 0x0, symName: __Z45NumericalEngineGreeks_Delta_Finite_Differencev, symObjAddr: 0x4D7C, symBinAddr: 0x10000D7E4, symSize: 0x390 }
  - { offset: 0x57E4D, size: 0x8, addend: 0x0, symName: __ZN55NumericalEngineGreeks_Delta_Finite_Difference_registrarC1Ev, symObjAddr: 0x4CA4, symBinAddr: 0x10000D740, symSize: 0xA4 }
  - { offset: 0x57EFA, size: 0x8, addend: 0x0, symName: __Z38BSEngineGreeks_Gamma_2D_Parameter_Gridv, symObjAddr: 0x497C, symBinAddr: 0x10000D418, symSize: 0x328 }
  - { offset: 0x581D0, size: 0x8, addend: 0x0, symName: __ZN48BSEngineGreeks_Gamma_2D_Parameter_Grid_registrarC1Ev, symObjAddr: 0x48D8, symBinAddr: 0x10000D374, symSize: 0xA4 }
  - { offset: 0x5827D, size: 0x8, addend: 0x0, symName: __Z38BSEngineGreeks_Delta_2D_Parameter_Gridv, symObjAddr: 0x45B0, symBinAddr: 0x10000D04C, symSize: 0x328 }
  - { offset: 0x58553, size: 0x8, addend: 0x0, symName: __ZN48BSEngineGreeks_Delta_2D_Parameter_Grid_registrarC1Ev, symObjAddr: 0x450C, symBinAddr: 0x10000CFA8, symSize: 0xA4 }
  - { offset: 0x58600, size: 0x8, addend: 0x0, symName: __Z31BSEngineGreeks_Delta_Range_of_Sv, symObjAddr: 0x4380, symBinAddr: 0x10000CE1C, symSize: 0x18C }
  - { offset: 0x58727, size: 0x8, addend: 0x0, symName: __ZN41BSEngineGreeks_Delta_Range_of_S_registrarC1Ev, symObjAddr: 0x42DC, symBinAddr: 0x10000CD78, symSize: 0xA4 }
  - { offset: 0x587D4, size: 0x8, addend: 0x0, symName: __Z21BSEngineGreeks_Basicsv, symObjAddr: 0x40B8, symBinAddr: 0x10000CB54, symSize: 0x224 }
  - { offset: 0x5894E, size: 0x8, addend: 0x0, symName: __ZN31BSEngineGreeks_Basics_registrarC1Ev, symObjAddr: 0x3FE0, symBinAddr: 0x10000CAB0, symSize: 0xA4 }
  - { offset: 0x589FB, size: 0x8, addend: 0x0, symName: __Z41BSEngine_Price_Function_2D_Parameter_Gridv, symObjAddr: 0x3A54, symBinAddr: 0x10000C524, symSize: 0x58C }
  - { offset: 0x58E62, size: 0x8, addend: 0x0, symName: __ZN51BSEngine_Price_Function_2D_Parameter_Grid_registrarC1Ev, symObjAddr: 0x39B0, symBinAddr: 0x10000C480, symSize: 0xA4 }
  - { offset: 0x58F0F, size: 0x8, addend: 0x0, symName: __Z41BSEngine_Price_Function_1D_Parameter_Gridv, symObjAddr: 0x3714, symBinAddr: 0x10000C1E4, symSize: 0x29C }
  - { offset: 0x590CC, size: 0x8, addend: 0x0, symName: __ZN51BSEngine_Price_Function_1D_Parameter_Grid_registrarC1Ev, symObjAddr: 0x3630, symBinAddr: 0x10000C140, symSize: 0xA4 }
  - { offset: 0x59179, size: 0x8, addend: 0x0, symName: __Z28sweep_2d_basic_functionalityv, symObjAddr: 0x31B4, symBinAddr: 0x10000BCC4, symSize: 0x47C }
  - { offset: 0x5952D, size: 0x8, addend: 0x0, symName: __ZN38sweep_2d_basic_functionality_registrarC1Ev, symObjAddr: 0x30F0, symBinAddr: 0x10000BC20, symSize: 0xA4 }
  - { offset: 0x595DA, size: 0x8, addend: 0x0, symName: __Z28sweep_1d_basic_functionalityv, symObjAddr: 0x2E70, symBinAddr: 0x10000B9A0, symSize: 0x280 }
  - { offset: 0x597C5, size: 0x8, addend: 0x0, symName: __ZNSt6vectorIN4yvan6option12OptionParamsESaIS2_EE5frontEv, symObjAddr: 0x2CDC, symBinAddr: 0x10000B938, symSize: 0x68 }
  - { offset: 0x5983F, size: 0x8, addend: 0x0, symName: __ZN38sweep_1d_basic_functionality_registrarC1Ev, symObjAddr: 0x2BE4, symBinAddr: 0x10000B894, symSize: 0xA4 }
  - { offset: 0x598EC, size: 0x8, addend: 0x0, symName: __Z31Util_Grid2D_Basic_Functionalityv, symObjAddr: 0x2A90, symBinAddr: 0x10000B740, symSize: 0x154 }
  - { offset: 0x59A08, size: 0x8, addend: 0x0, symName: __ZN4yvan4util6Grid2DIiED1Ev, symObjAddr: 0x2A70, symBinAddr: 0x10000B720, symSize: 0x20 }
  - { offset: 0x59A44, size: 0x8, addend: 0x0, symName: __ZN41Util_Grid2D_Basic_Functionality_registrarC1Ev, symObjAddr: 0x29CC, symBinAddr: 0x10000B67C, symSize: 0xA4 }
  - { offset: 0x59AF0, size: 0x8, addend: 0x0, symName: __Z21Util_Parity_Functionsv, symObjAddr: 0x270C, symBinAddr: 0x10000B3BC, symSize: 0x2C0 }
  - { offset: 0x59D0D, size: 0x8, addend: 0x0, symName: __ZN31Util_Parity_Functions_registrarC1Ev, symObjAddr: 0x2668, symBinAddr: 0x10000B318, symSize: 0xA4 }
  - { offset: 0x59DB9, size: 0x8, addend: 0x0, symName: __Z39BSEngine_Price_Function_EuropeanOptionsv, symObjAddr: 0x1EA8, symBinAddr: 0x10000AB58, symSize: 0x7C0 }
  - { offset: 0x5A33B, size: 0x8, addend: 0x0, symName: __ZN49BSEngine_Price_Function_EuropeanOptions_registrarC1Ev, symObjAddr: 0x1DA8, symBinAddr: 0x10000AAB4, symSize: 0xA4 }
  - { offset: 0x5A3E7, size: 0x8, addend: 0x0, symName: __Z30EuropeanOption_Payoff_Functionv, symObjAddr: 0x1B6C, symBinAddr: 0x10000A878, symSize: 0x23C }
  - { offset: 0x5A577, size: 0x8, addend: 0x0, symName: __ZN40EuropeanOption_Payoff_Function_registrarC1Ev, symObjAddr: 0x1AC8, symBinAddr: 0x10000A7D4, symSize: 0xA4 }
  - { offset: 0x5A623, size: 0x8, addend: 0x0, symName: __Z35EuropeanOption_Assignment_Operatorsv, symObjAddr: 0x181C, symBinAddr: 0x10000A528, symSize: 0x2AC }
  - { offset: 0x5A80B, size: 0x8, addend: 0x0, symName: __ZN4yvan6option14EuropeanOptionaSEOS1_, symObjAddr: 0x17F4, symBinAddr: 0x10000A500, symSize: 0x28 }
  - { offset: 0x5A842, size: 0x8, addend: 0x0, symName: __ZN4yvan6option6OptionaSEOS1_, symObjAddr: 0x17A8, symBinAddr: 0x10000A4B4, symSize: 0x4C }
  - { offset: 0x5A879, size: 0x8, addend: 0x0, symName: __ZN4yvan6option14EuropeanOptionaSERKS1_, symObjAddr: 0x1780, symBinAddr: 0x10000A48C, symSize: 0x28 }
  - { offset: 0x5A8B0, size: 0x8, addend: 0x0, symName: __ZN4yvan6option6OptionaSERKS1_, symObjAddr: 0x1734, symBinAddr: 0x10000A440, symSize: 0x4C }
  - { offset: 0x5A8FF, size: 0x8, addend: 0x0, symName: __ZN45EuropeanOption_Assignment_Operators_registrarC1Ev, symObjAddr: 0x1690, symBinAddr: 0x10000A39C, symSize: 0xA4 }
  - { offset: 0x5A9AB, size: 0x8, addend: 0x0, symName: __Z43EuropeanOption_Constructors_Getters_Settersv, symObjAddr: 0x10D0, symBinAddr: 0x100009DDC, symSize: 0x5C0 }
  - { offset: 0x5AE9C, size: 0x8, addend: 0x0, symName: __ZN4yvan6option14EuropeanOptionC1EOS1_, symObjAddr: 0x1094, symBinAddr: 0x100009DA0, symSize: 0x3C }
  - { offset: 0x5AEE5, size: 0x8, addend: 0x0, symName: __ZN4yvan6option6OptionC2EOS1_, symObjAddr: 0x1034, symBinAddr: 0x100009D40, symSize: 0x60 }
  - { offset: 0x5AF35, size: 0x8, addend: 0x0, symName: __ZN4yvan6option14EuropeanOptionC1ERKS1_, symObjAddr: 0xFF8, symBinAddr: 0x100009D04, symSize: 0x3C }
  - { offset: 0x5AF85, size: 0x8, addend: 0x0, symName: __ZN4yvan6option6OptionC2ERKS1_, symObjAddr: 0xF98, symBinAddr: 0x100009CA4, symSize: 0x60 }
  - { offset: 0x5AFC9, size: 0x8, addend: 0x0, symName: __ZN53EuropeanOption_Constructors_Getters_Setters_registrarC1Ev, symObjAddr: 0xE70, symBinAddr: 0x100009C00, symSize: 0xA4 }
  - { offset: 0x5B0B6, size: 0x8, addend: 0x0, symName: __ZN4yvan4test12faile_assertEPKciRKNSt7__cxx1112basic_stringIcSt11char_traitsIcESaIcEEEb, symObjAddr: 0xD50, symBinAddr: 0x100009AE0, symSize: 0x120 }
  - { offset: 0x5B135, size: 0x8, addend: 0x0, symName: __ZN4yvan4test13AssertFailureD1Ev, symObjAddr: 0xD30, symBinAddr: 0x100009AC0, symSize: 0x20 }
  - { offset: 0x5B155, size: 0x8, addend: 0x0, symName: __ZN4yvan4test13register_testERKNSt7__cxx1112basic_stringIcSt11char_traitsIcESaIcEEESt8functionIFbvEE, symObjAddr: 0xC84, symBinAddr: 0x100009A14, symSize: 0xAC }
  - { offset: 0x5B1AE, size: 0x8, addend: 0x0, symName: __ZN4yvan4test8TestCaseD1Ev, symObjAddr: 0xC58, symBinAddr: 0x1000099E8, symSize: 0x2C }
  - { offset: 0x5B1EF, size: 0x8, addend: 0x0, symName: __ZNSt8functionIFbvEED1Ev, symObjAddr: 0xC38, symBinAddr: 0x1000099C8, symSize: 0x20 }
  - { offset: 0x5B20F, size: 0x8, addend: 0x0, symName: __ZN4yvan4test8registryEv, symObjAddr: 0xBAC, symBinAddr: 0x10000993C, symSize: 0x8C }
  - { offset: 0x5B234, size: 0x8, addend: 0x0, symName: __ZZN4yvan4test8registryEvE5tests, symObjAddr: 0xBC08, symBinAddr: 0x100024000, symSize: 0x0 }
  - { offset: 0x5B262, size: 0x8, addend: 0x0, symName: __ZNSt12_Vector_baseIN4yvan4test8TestCaseESaIS2_EE12_Vector_implD1Ev, symObjAddr: 0xB8C, symBinAddr: 0x10000991C, symSize: 0x20 }
  - { offset: 0x5B2A8, size: 0x8, addend: 0x0, symName: __ZNKSt14_Function_base8_M_emptyEv, symObjAddr: 0xB30, symBinAddr: 0x1000098F8, symSize: 0x24 }
  - { offset: 0x5B2E8, size: 0x8, addend: 0x0, symName: __ZNSt14_Function_baseD2Ev, symObjAddr: 0xAF0, symBinAddr: 0x1000098B8, symSize: 0x40 }
  - { offset: 0x5B311, size: 0x8, addend: 0x0, symName: __ZNKSt9_Any_data9_M_accessEv, symObjAddr: 0xADC, symBinAddr: 0x1000098A4, symSize: 0x14 }
  - { offset: 0x5B33E, size: 0x8, addend: 0x0, symName: __ZNSt9_Any_data9_M_accessEv, symObjAddr: 0xAC8, symBinAddr: 0x100009890, symSize: 0x14 }
  - { offset: 0x5B39C, size: 0x8, addend: 0x0, symName: __ZN4yvan6engine21NumericalEngineGreeksC1ERKNS0_8BSEngineEd, symObjAddr: 0xA74, symBinAddr: 0x10000983C, symSize: 0x54 }
  - { offset: 0x5B3E8, size: 0x8, addend: 0x0, symName: __ZN4yvan6engine7IGreeksC2Ev, symObjAddr: 0xA24, symBinAddr: 0x100009814, symSize: 0x28 }
  - { offset: 0x5B434, size: 0x8, addend: 0x0, symName: __ZN4yvan6option6Option10volatilityEd, symObjAddr: 0x360, symBinAddr: 0x1000097F0, symSize: 0x24 }
  - { offset: 0x5B46B, size: 0x8, addend: 0x0, symName: __ZN4yvan6option6Option13cost_of_carryEd, symObjAddr: 0x33C, symBinAddr: 0x1000097CC, symSize: 0x24 }
  - { offset: 0x5B4A2, size: 0x8, addend: 0x0, symName: __ZN4yvan6option6Option1rEd, symObjAddr: 0x318, symBinAddr: 0x1000097A8, symSize: 0x24 }
  - { offset: 0x5B4D9, size: 0x8, addend: 0x0, symName: __ZN4yvan6option6Option12strike_priceEd, symObjAddr: 0x2F4, symBinAddr: 0x100009784, symSize: 0x24 }
  - { offset: 0x5B510, size: 0x8, addend: 0x0, symName: __ZN4yvan6option6Option11asset_priceEd, symObjAddr: 0x2D0, symBinAddr: 0x100009760, symSize: 0x24 }
  - { offset: 0x5B547, size: 0x8, addend: 0x0, symName: __ZNK4yvan6option6Option11option_typeEv, symObjAddr: 0x2B8, symBinAddr: 0x100009748, symSize: 0x18 }
  - { offset: 0x5B56F, size: 0x8, addend: 0x0, symName: __ZNK4yvan6option6Option11asset_priceEv, symObjAddr: 0x29C, symBinAddr: 0x10000972C, symSize: 0x1C }
  - { offset: 0x5B65B, size: 0x8, addend: 0x0, symName: __ZNSt7__cxx1112basic_stringIcSt11char_traitsIcESaIcEE12_Alloc_hiderC1EPcOS3_, symObjAddr: 0x1B4, symBinAddr: 0x1000096D4, symSize: 0x58 }
  - { offset: 0x61BC8, size: 0x8, addend: 0x0, symName: __ZStL8__ioinit, symObjAddr: 0x3E557, symBinAddr: 0x100024066, symSize: 0x0 }
  - { offset: 0x61E7B, size: 0x8, addend: 0x0, symName: __GLOBAL__sub_I_main.cpp, symObjAddr: 0xBB0, symBinAddr: 0x100011DB4, symSize: 0x14 }
  - { offset: 0x61E93, size: 0x8, addend: 0x0, symName: __Z41__static_initialization_and_destruction_0v, symObjAddr: 0xB74, symBinAddr: 0x100011D78, symSize: 0x3C }
  - { offset: 0x61EAE, size: 0x8, addend: 0x0, symName: __ZNKSt8functionIFbvEEclEv, symObjAddr: 0x608, symBinAddr: 0x100011D3C, symSize: 0x3C }
  - { offset: 0x61EEE, size: 0x8, addend: 0x0, symName: _main, symObjAddr: 0x4AC, symBinAddr: 0x100011D10, symSize: 0x2C }
  - { offset: 0x61F05, size: 0x8, addend: 0x0, symName: __ZN4yvan4test13run_all_testsEv, symObjAddr: 0x17C, symBinAddr: 0x1000119E0, symSize: 0x330 }
...
